
bomb：     文件格式 elf32-i386


Disassembly of section .init:

080486f4 <_init>:
 80486f4:	53                   	push   %ebx
 80486f5:	83 ec 08             	sub    $0x8,%esp
 80486f8:	e8 13 02 00 00       	call   8048910 <__x86.get_pc_thunk.bx>
 80486fd:	81 c3 03 39 00 00    	add    $0x3903,%ebx
 8048703:	8b 83 fc ff ff ff    	mov    -0x4(%ebx),%eax
 8048709:	85 c0                	test   %eax,%eax
 804870b:	74 05                	je     8048712 <_init+0x1e>
 804870d:	e8 be 01 00 00       	call   80488d0 <.plt.got>
 8048712:	83 c4 08             	add    $0x8,%esp
 8048715:	5b                   	pop    %ebx
 8048716:	c3                   	ret    

Disassembly of section .plt:

08048720 <.plt>:
 8048720:	ff 35 04 c0 04 08    	pushl  0x804c004
 8048726:	ff 25 08 c0 04 08    	jmp    *0x804c008
 804872c:	00 00                	add    %al,(%eax)
	...

08048730 <read@plt>:
 8048730:	ff 25 0c c0 04 08    	jmp    *0x804c00c
 8048736:	68 00 00 00 00       	push   $0x0
 804873b:	e9 e0 ff ff ff       	jmp    8048720 <.plt>

08048740 <fflush@plt>:
 8048740:	ff 25 10 c0 04 08    	jmp    *0x804c010
 8048746:	68 08 00 00 00       	push   $0x8
 804874b:	e9 d0 ff ff ff       	jmp    8048720 <.plt>

08048750 <fgets@plt>:
 8048750:	ff 25 14 c0 04 08    	jmp    *0x804c014
 8048756:	68 10 00 00 00       	push   $0x10
 804875b:	e9 c0 ff ff ff       	jmp    8048720 <.plt>

08048760 <signal@plt>:
 8048760:	ff 25 18 c0 04 08    	jmp    *0x804c018
 8048766:	68 18 00 00 00       	push   $0x18
 804876b:	e9 b0 ff ff ff       	jmp    8048720 <.plt>

08048770 <sleep@plt>:
 8048770:	ff 25 1c c0 04 08    	jmp    *0x804c01c
 8048776:	68 20 00 00 00       	push   $0x20
 804877b:	e9 a0 ff ff ff       	jmp    8048720 <.plt>

08048780 <alarm@plt>:
 8048780:	ff 25 20 c0 04 08    	jmp    *0x804c020
 8048786:	68 28 00 00 00       	push   $0x28
 804878b:	e9 90 ff ff ff       	jmp    8048720 <.plt>

08048790 <__stack_chk_fail@plt>:
 8048790:	ff 25 24 c0 04 08    	jmp    *0x804c024
 8048796:	68 30 00 00 00       	push   $0x30
 804879b:	e9 80 ff ff ff       	jmp    8048720 <.plt>

080487a0 <strcpy@plt>:
 80487a0:	ff 25 28 c0 04 08    	jmp    *0x804c028
 80487a6:	68 38 00 00 00       	push   $0x38
 80487ab:	e9 70 ff ff ff       	jmp    8048720 <.plt>

080487b0 <getenv@plt>:
 80487b0:	ff 25 2c c0 04 08    	jmp    *0x804c02c
 80487b6:	68 40 00 00 00       	push   $0x40
 80487bb:	e9 60 ff ff ff       	jmp    8048720 <.plt>

080487c0 <puts@plt>:
 80487c0:	ff 25 30 c0 04 08    	jmp    *0x804c030
 80487c6:	68 48 00 00 00       	push   $0x48
 80487cb:	e9 50 ff ff ff       	jmp    8048720 <.plt>

080487d0 <__memmove_chk@plt>:
 80487d0:	ff 25 34 c0 04 08    	jmp    *0x804c034
 80487d6:	68 50 00 00 00       	push   $0x50
 80487db:	e9 40 ff ff ff       	jmp    8048720 <.plt>

080487e0 <exit@plt>:
 80487e0:	ff 25 38 c0 04 08    	jmp    *0x804c038
 80487e6:	68 58 00 00 00       	push   $0x58
 80487eb:	e9 30 ff ff ff       	jmp    8048720 <.plt>

080487f0 <__libc_start_main@plt>:
 80487f0:	ff 25 3c c0 04 08    	jmp    *0x804c03c
 80487f6:	68 60 00 00 00       	push   $0x60
 80487fb:	e9 20 ff ff ff       	jmp    8048720 <.plt>

08048800 <write@plt>:
 8048800:	ff 25 40 c0 04 08    	jmp    *0x804c040
 8048806:	68 68 00 00 00       	push   $0x68
 804880b:	e9 10 ff ff ff       	jmp    8048720 <.plt>

08048810 <__isoc99_sscanf@plt>:
 8048810:	ff 25 44 c0 04 08    	jmp    *0x804c044
 8048816:	68 70 00 00 00       	push   $0x70
 804881b:	e9 00 ff ff ff       	jmp    8048720 <.plt>

08048820 <fopen@plt>:
 8048820:	ff 25 48 c0 04 08    	jmp    *0x804c048
 8048826:	68 78 00 00 00       	push   $0x78
 804882b:	e9 f0 fe ff ff       	jmp    8048720 <.plt>

08048830 <__errno_location@plt>:
 8048830:	ff 25 4c c0 04 08    	jmp    *0x804c04c
 8048836:	68 80 00 00 00       	push   $0x80
 804883b:	e9 e0 fe ff ff       	jmp    8048720 <.plt>

08048840 <__printf_chk@plt>:
 8048840:	ff 25 50 c0 04 08    	jmp    *0x804c050
 8048846:	68 88 00 00 00       	push   $0x88
 804884b:	e9 d0 fe ff ff       	jmp    8048720 <.plt>

08048850 <socket@plt>:
 8048850:	ff 25 54 c0 04 08    	jmp    *0x804c054
 8048856:	68 90 00 00 00       	push   $0x90
 804885b:	e9 c0 fe ff ff       	jmp    8048720 <.plt>

08048860 <__fprintf_chk@plt>:
 8048860:	ff 25 58 c0 04 08    	jmp    *0x804c058
 8048866:	68 98 00 00 00       	push   $0x98
 804886b:	e9 b0 fe ff ff       	jmp    8048720 <.plt>

08048870 <gethostbyname@plt>:
 8048870:	ff 25 5c c0 04 08    	jmp    *0x804c05c
 8048876:	68 a0 00 00 00       	push   $0xa0
 804887b:	e9 a0 fe ff ff       	jmp    8048720 <.plt>

08048880 <strtol@plt>:
 8048880:	ff 25 60 c0 04 08    	jmp    *0x804c060
 8048886:	68 a8 00 00 00       	push   $0xa8
 804888b:	e9 90 fe ff ff       	jmp    8048720 <.plt>

08048890 <connect@plt>:
 8048890:	ff 25 64 c0 04 08    	jmp    *0x804c064
 8048896:	68 b0 00 00 00       	push   $0xb0
 804889b:	e9 80 fe ff ff       	jmp    8048720 <.plt>

080488a0 <close@plt>:
 80488a0:	ff 25 68 c0 04 08    	jmp    *0x804c068
 80488a6:	68 b8 00 00 00       	push   $0xb8
 80488ab:	e9 70 fe ff ff       	jmp    8048720 <.plt>

080488b0 <__ctype_b_loc@plt>:
 80488b0:	ff 25 6c c0 04 08    	jmp    *0x804c06c
 80488b6:	68 c0 00 00 00       	push   $0xc0
 80488bb:	e9 60 fe ff ff       	jmp    8048720 <.plt>

080488c0 <__sprintf_chk@plt>:
 80488c0:	ff 25 70 c0 04 08    	jmp    *0x804c070
 80488c6:	68 c8 00 00 00       	push   $0xc8
 80488cb:	e9 50 fe ff ff       	jmp    8048720 <.plt>

Disassembly of section .plt.got:

080488d0 <.plt.got>:
 80488d0:	ff 25 fc bf 04 08    	jmp    *0x804bffc
 80488d6:	66 90                	xchg   %ax,%ax

Disassembly of section .text:

080488e0 <_start>:
 80488e0:	31 ed                	xor    %ebp,%ebp
 80488e2:	5e                   	pop    %esi
 80488e3:	89 e1                	mov    %esp,%ecx
 80488e5:	83 e4 f0             	and    $0xfffffff0,%esp
 80488e8:	50                   	push   %eax
 80488e9:	54                   	push   %esp
 80488ea:	52                   	push   %edx
 80488eb:	68 e0 9e 04 08       	push   $0x8049ee0
 80488f0:	68 80 9e 04 08       	push   $0x8049e80
 80488f5:	51                   	push   %ecx
 80488f6:	56                   	push   %esi
 80488f7:	68 db 89 04 08       	push   $0x80489db
 80488fc:	e8 ef fe ff ff       	call   80487f0 <__libc_start_main@plt>
 8048901:	f4                   	hlt    
 8048902:	66 90                	xchg   %ax,%ax
 8048904:	66 90                	xchg   %ax,%ax
 8048906:	66 90                	xchg   %ax,%ax
 8048908:	66 90                	xchg   %ax,%ax
 804890a:	66 90                	xchg   %ax,%ax
 804890c:	66 90                	xchg   %ax,%ax
 804890e:	66 90                	xchg   %ax,%ax

08048910 <__x86.get_pc_thunk.bx>:
 8048910:	8b 1c 24             	mov    (%esp),%ebx
 8048913:	c3                   	ret    
 8048914:	66 90                	xchg   %ax,%ax
 8048916:	66 90                	xchg   %ax,%ax
 8048918:	66 90                	xchg   %ax,%ax
 804891a:	66 90                	xchg   %ax,%ax
 804891c:	66 90                	xchg   %ax,%ax
 804891e:	66 90                	xchg   %ax,%ax

08048920 <deregister_tm_clones>:
 8048920:	b8 a3 c3 04 08       	mov    $0x804c3a3,%eax
 8048925:	2d a0 c3 04 08       	sub    $0x804c3a0,%eax
 804892a:	83 f8 06             	cmp    $0x6,%eax
 804892d:	76 1a                	jbe    8048949 <deregister_tm_clones+0x29>
 804892f:	b8 00 00 00 00       	mov    $0x0,%eax
 8048934:	85 c0                	test   %eax,%eax
 8048936:	74 11                	je     8048949 <deregister_tm_clones+0x29>
 8048938:	55                   	push   %ebp
 8048939:	89 e5                	mov    %esp,%ebp
 804893b:	83 ec 14             	sub    $0x14,%esp
 804893e:	68 a0 c3 04 08       	push   $0x804c3a0
 8048943:	ff d0                	call   *%eax
 8048945:	83 c4 10             	add    $0x10,%esp
 8048948:	c9                   	leave  
 8048949:	f3 c3                	repz ret 
 804894b:	90                   	nop
 804894c:	8d 74 26 00          	lea    0x0(%esi,%eiz,1),%esi

08048950 <register_tm_clones>:
 8048950:	b8 a0 c3 04 08       	mov    $0x804c3a0,%eax
 8048955:	2d a0 c3 04 08       	sub    $0x804c3a0,%eax
 804895a:	c1 f8 02             	sar    $0x2,%eax
 804895d:	89 c2                	mov    %eax,%edx
 804895f:	c1 ea 1f             	shr    $0x1f,%edx
 8048962:	01 d0                	add    %edx,%eax
 8048964:	d1 f8                	sar    %eax
 8048966:	74 1b                	je     8048983 <register_tm_clones+0x33>
 8048968:	ba 00 00 00 00       	mov    $0x0,%edx
 804896d:	85 d2                	test   %edx,%edx
 804896f:	74 12                	je     8048983 <register_tm_clones+0x33>
 8048971:	55                   	push   %ebp
 8048972:	89 e5                	mov    %esp,%ebp
 8048974:	83 ec 10             	sub    $0x10,%esp
 8048977:	50                   	push   %eax
 8048978:	68 a0 c3 04 08       	push   $0x804c3a0
 804897d:	ff d2                	call   *%edx
 804897f:	83 c4 10             	add    $0x10,%esp
 8048982:	c9                   	leave  
 8048983:	f3 c3                	repz ret 
 8048985:	8d 74 26 00          	lea    0x0(%esi,%eiz,1),%esi
 8048989:	8d bc 27 00 00 00 00 	lea    0x0(%edi,%eiz,1),%edi

08048990 <__do_global_dtors_aux>:
 8048990:	80 3d c8 c3 04 08 00 	cmpb   $0x0,0x804c3c8
 8048997:	75 13                	jne    80489ac <__do_global_dtors_aux+0x1c>
 8048999:	55                   	push   %ebp
 804899a:	89 e5                	mov    %esp,%ebp
 804899c:	83 ec 08             	sub    $0x8,%esp
 804899f:	e8 7c ff ff ff       	call   8048920 <deregister_tm_clones>
 80489a4:	c6 05 c8 c3 04 08 01 	movb   $0x1,0x804c3c8
 80489ab:	c9                   	leave  
 80489ac:	f3 c3                	repz ret 
 80489ae:	66 90                	xchg   %ax,%ax

080489b0 <frame_dummy>:
 80489b0:	b8 10 bf 04 08       	mov    $0x804bf10,%eax
 80489b5:	8b 10                	mov    (%eax),%edx
 80489b7:	85 d2                	test   %edx,%edx
 80489b9:	75 05                	jne    80489c0 <frame_dummy+0x10>
 80489bb:	eb 93                	jmp    8048950 <register_tm_clones>
 80489bd:	8d 76 00             	lea    0x0(%esi),%esi
 80489c0:	ba 00 00 00 00       	mov    $0x0,%edx
 80489c5:	85 d2                	test   %edx,%edx
 80489c7:	74 f2                	je     80489bb <frame_dummy+0xb>
 80489c9:	55                   	push   %ebp
 80489ca:	89 e5                	mov    %esp,%ebp
 80489cc:	83 ec 14             	sub    $0x14,%esp
 80489cf:	50                   	push   %eax
 80489d0:	ff d2                	call   *%edx
 80489d2:	83 c4 10             	add    $0x10,%esp
 80489d5:	c9                   	leave  
 80489d6:	e9 75 ff ff ff       	jmp    8048950 <register_tm_clones>

080489db <main>:
 80489db:	8d 4c 24 04          	lea    0x4(%esp),%ecx
 80489df:	83 e4 f0             	and    $0xfffffff0,%esp
 80489e2:	ff 71 fc             	pushl  -0x4(%ecx)
 80489e5:	55                   	push   %ebp
 80489e6:	89 e5                	mov    %esp,%ebp
 80489e8:	53                   	push   %ebx
 80489e9:	51                   	push   %ecx
 80489ea:	8b 01                	mov    (%ecx),%eax
 80489ec:	8b 59 04             	mov    0x4(%ecx),%ebx
 80489ef:	83 f8 01             	cmp    $0x1,%eax
 80489f2:	75 0c                	jne    8048a00 <main+0x25>
 80489f4:	a1 c0 c3 04 08       	mov    0x804c3c0,%eax
 80489f9:	a3 d0 c3 04 08       	mov    %eax,0x804c3d0
 80489fe:	eb 5b                	jmp    8048a5b <main+0x80>
 8048a00:	83 f8 02             	cmp    $0x2,%eax
 8048a03:	75 39                	jne    8048a3e <main+0x63>
 8048a05:	83 ec 08             	sub    $0x8,%esp
 8048a08:	68 08 9f 04 08       	push   $0x8049f08
 8048a0d:	ff 73 04             	pushl  0x4(%ebx)
 8048a10:	e8 0b fe ff ff       	call   8048820 <fopen@plt>
 8048a15:	a3 d0 c3 04 08       	mov    %eax,0x804c3d0
 8048a1a:	83 c4 10             	add    $0x10,%esp
 8048a1d:	85 c0                	test   %eax,%eax
 8048a1f:	75 3a                	jne    8048a5b <main+0x80>
 8048a21:	ff 73 04             	pushl  0x4(%ebx)
 8048a24:	ff 33                	pushl  (%ebx)
 8048a26:	68 0a 9f 04 08       	push   $0x8049f0a
 8048a2b:	6a 01                	push   $0x1
 8048a2d:	e8 0e fe ff ff       	call   8048840 <__printf_chk@plt>
 8048a32:	c7 04 24 08 00 00 00 	movl   $0x8,(%esp)
 8048a39:	e8 a2 fd ff ff       	call   80487e0 <exit@plt>
 8048a3e:	83 ec 04             	sub    $0x4,%esp
 8048a41:	ff 33                	pushl  (%ebx)
 8048a43:	68 27 9f 04 08       	push   $0x8049f27
 8048a48:	6a 01                	push   $0x1
 8048a4a:	e8 f1 fd ff ff       	call   8048840 <__printf_chk@plt>
 8048a4f:	c7 04 24 08 00 00 00 	movl   $0x8,(%esp)
 8048a56:	e8 85 fd ff ff       	call   80487e0 <exit@plt>
 8048a5b:	e8 48 06 00 00       	call   80490a8 <initialize_bomb>
 8048a60:	83 ec 0c             	sub    $0xc,%esp
 8048a63:	68 8c 9f 04 08       	push   $0x8049f8c
 8048a68:	e8 53 fd ff ff       	call   80487c0 <puts@plt>
 8048a6d:	c7 04 24 c8 9f 04 08 	movl   $0x8049fc8,(%esp)
 8048a74:	e8 47 fd ff ff       	call   80487c0 <puts@plt>
 8048a79:	e8 1c 07 00 00       	call   804919a <read_line>
 8048a7e:	89 04 24             	mov    %eax,(%esp)
 8048a81:	e8 ad 00 00 00       	call   8048b33 <phase_1>
 8048a86:	e8 08 08 00 00       	call   8049293 <phase_defused>
 8048a8b:	c7 04 24 f4 9f 04 08 	movl   $0x8049ff4,(%esp)
 8048a92:	e8 29 fd ff ff       	call   80487c0 <puts@plt>
 8048a97:	e8 fe 06 00 00       	call   804919a <read_line>
 8048a9c:	89 04 24             	mov    %eax,(%esp)
 8048a9f:	e8 b0 00 00 00       	call   8048b54 <phase_2>
 8048aa4:	e8 ea 07 00 00       	call   8049293 <phase_defused>
 8048aa9:	c7 04 24 41 9f 04 08 	movl   $0x8049f41,(%esp)
 8048ab0:	e8 0b fd ff ff       	call   80487c0 <puts@plt>
 8048ab5:	e8 e0 06 00 00       	call   804919a <read_line>
 8048aba:	89 04 24             	mov    %eax,(%esp)
 8048abd:	e8 f5 00 00 00       	call   8048bb7 <phase_3>
 8048ac2:	e8 cc 07 00 00       	call   8049293 <phase_defused>
 8048ac7:	c7 04 24 5f 9f 04 08 	movl   $0x8049f5f,(%esp)
 8048ace:	e8 ed fc ff ff       	call   80487c0 <puts@plt>
 8048ad3:	e8 c2 06 00 00       	call   804919a <read_line>
 8048ad8:	89 04 24             	mov    %eax,(%esp)
 8048adb:	e8 7e 02 00 00       	call   8048d5e <phase_4>
 8048ae0:	e8 ae 07 00 00       	call   8049293 <phase_defused>
 8048ae5:	c7 04 24 20 a0 04 08 	movl   $0x804a020,(%esp)
 8048aec:	e8 cf fc ff ff       	call   80487c0 <puts@plt>
 8048af1:	e8 a4 06 00 00       	call   804919a <read_line>
 8048af6:	89 04 24             	mov    %eax,(%esp)
 8048af9:	e8 d2 02 00 00       	call   8048dd0 <phase_5>
 8048afe:	e8 90 07 00 00       	call   8049293 <phase_defused>
 8048b03:	c7 04 24 6e 9f 04 08 	movl   $0x8049f6e,(%esp)
 8048b0a:	e8 b1 fc ff ff       	call   80487c0 <puts@plt>
 8048b0f:	e8 86 06 00 00       	call   804919a <read_line>
 8048b14:	89 04 24             	mov    %eax,(%esp)
 8048b17:	e8 fc 02 00 00       	call   8048e18 <phase_6>
 8048b1c:	e8 72 07 00 00       	call   8049293 <phase_defused>
 8048b21:	83 c4 10             	add    $0x10,%esp
 8048b24:	b8 00 00 00 00       	mov    $0x0,%eax
 8048b29:	8d 65 f8             	lea    -0x8(%ebp),%esp
 8048b2c:	59                   	pop    %ecx
 8048b2d:	5b                   	pop    %ebx
 8048b2e:	5d                   	pop    %ebp
 8048b2f:	8d 61 fc             	lea    -0x4(%ecx),%esp
 8048b32:	c3                   	ret    

08048b33 <phase_1>:
 8048b33:	83 ec 14             	sub    $0x14,%esp
 8048b36:	68 44 a0 04 08       	push   $0x804a044
 8048b3b:	ff 74 24 1c          	pushl  0x1c(%esp)
 8048b3f:	e8 ff 04 00 00       	call   8049043 <strings_not_equal>
 8048b44:	83 c4 10             	add    $0x10,%esp
 8048b47:	85 c0                	test   %eax,%eax
 8048b49:	74 05                	je     8048b50 <phase_1+0x1d>
 8048b4b:	e8 ea 05 00 00       	call   804913a <explode_bomb>
 8048b50:	83 c4 0c             	add    $0xc,%esp
 8048b53:	c3                   	ret    

08048b54 <phase_2>:
 8048b54:	56                   	push   %esi
 8048b55:	53                   	push   %ebx
 8048b56:	83 ec 2c             	sub    $0x2c,%esp
 8048b59:	65 a1 14 00 00 00    	mov    %gs:0x14,%eax
 8048b5f:	89 44 24 24          	mov    %eax,0x24(%esp)
 8048b63:	31 c0                	xor    %eax,%eax
 8048b65:	8d 44 24 0c          	lea    0xc(%esp),%eax
 8048b69:	50                   	push   %eax
 8048b6a:	ff 74 24 3c          	pushl  0x3c(%esp)
 8048b6e:	e8 ec 05 00 00       	call   804915f <read_six_numbers>
 8048b73:	83 c4 10             	add    $0x10,%esp
 8048b76:	83 7c 24 04 01       	cmpl   $0x1,0x4(%esp)
 8048b7b:	74 05                	je     8048b82 <phase_2+0x2e>
 8048b7d:	e8 b8 05 00 00       	call   804913a <explode_bomb>
 8048b82:	8d 5c 24 04          	lea    0x4(%esp),%ebx
 8048b86:	8d 74 24 18          	lea    0x18(%esp),%esi
 8048b8a:	8b 03                	mov    (%ebx),%eax
 8048b8c:	01 c0                	add    %eax,%eax
 8048b8e:	39 43 04             	cmp    %eax,0x4(%ebx)
 8048b91:	74 05                	je     8048b98 <phase_2+0x44>
 8048b93:	e8 a2 05 00 00       	call   804913a <explode_bomb>
 8048b98:	83 c3 04             	add    $0x4,%ebx
 8048b9b:	39 f3                	cmp    %esi,%ebx
 8048b9d:	75 eb                	jne    8048b8a <phase_2+0x36>
 8048b9f:	8b 44 24 1c          	mov    0x1c(%esp),%eax
 8048ba3:	65 33 05 14 00 00 00 	xor    %gs:0x14,%eax
 8048baa:	74 05                	je     8048bb1 <phase_2+0x5d>
 8048bac:	e8 df fb ff ff       	call   8048790 <__stack_chk_fail@plt>
 8048bb1:	83 c4 24             	add    $0x24,%esp
 8048bb4:	5b                   	pop    %ebx
 8048bb5:	5e                   	pop    %esi
 8048bb6:	c3                   	ret    

08048bb7 <phase_3>:
 8048bb7:	83 ec 28             	sub    $0x28,%esp
 8048bba:	65 a1 14 00 00 00    	mov    %gs:0x14,%eax
 8048bc0:	89 44 24 18          	mov    %eax,0x18(%esp)
 8048bc4:	31 c0                	xor    %eax,%eax
 8048bc6:	8d 44 24 14          	lea    0x14(%esp),%eax
 8048bca:	50                   	push   %eax
 8048bcb:	8d 44 24 13          	lea    0x13(%esp),%eax
 8048bcf:	50                   	push   %eax
 8048bd0:	8d 44 24 18          	lea    0x18(%esp),%eax
 8048bd4:	50                   	push   %eax
 8048bd5:	68 58 a0 04 08       	push   $0x804a058
 8048bda:	ff 74 24 3c          	pushl  0x3c(%esp)
 8048bde:	e8 2d fc ff ff       	call   8048810 <__isoc99_sscanf@plt>
 8048be3:	83 c4 20             	add    $0x20,%esp
 8048be6:	83 f8 02             	cmp    $0x2,%eax
 8048be9:	7f 05                	jg     8048bf0 <phase_3+0x39>
 8048beb:	e8 4a 05 00 00       	call   804913a <explode_bomb>
 8048bf0:	83 7c 24 04 07       	cmpl   $0x7,0x4(%esp)
 8048bf5:	0f 87 f5 00 00 00    	ja     8048cf0 <phase_3+0x139>
 8048bfb:	8b 44 24 04          	mov    0x4(%esp),%eax
 8048bff:	ff 24 85 80 a0 04 08 	jmp    *0x804a080(,%eax,4)
 8048c06:	b8 72 00 00 00       	mov    $0x72,%eax
 8048c0b:	81 7c 24 08 98 02 00 	cmpl   $0x298,0x8(%esp)
 8048c12:	00 
 8048c13:	0f 84 e1 00 00 00    	je     8048cfa <phase_3+0x143>
 8048c19:	e8 1c 05 00 00       	call   804913a <explode_bomb>
 8048c1e:	b8 72 00 00 00       	mov    $0x72,%eax
 8048c23:	e9 d2 00 00 00       	jmp    8048cfa <phase_3+0x143>
 8048c28:	b8 74 00 00 00       	mov    $0x74,%eax
 8048c2d:	81 7c 24 08 f1 02 00 	cmpl   $0x2f1,0x8(%esp)
 8048c34:	00 
 8048c35:	0f 84 bf 00 00 00    	je     8048cfa <phase_3+0x143>
 8048c3b:	e8 fa 04 00 00       	call   804913a <explode_bomb>
 8048c40:	b8 74 00 00 00       	mov    $0x74,%eax
 8048c45:	e9 b0 00 00 00       	jmp    8048cfa <phase_3+0x143>
 8048c4a:	b8 6a 00 00 00       	mov    $0x6a,%eax
 8048c4f:	81 7c 24 08 54 02 00 	cmpl   $0x254,0x8(%esp)
 8048c56:	00 
 8048c57:	0f 84 9d 00 00 00    	je     8048cfa <phase_3+0x143>
 8048c5d:	e8 d8 04 00 00       	call   804913a <explode_bomb>
 8048c62:	b8 6a 00 00 00       	mov    $0x6a,%eax
 8048c67:	e9 8e 00 00 00       	jmp    8048cfa <phase_3+0x143>
 8048c6c:	b8 71 00 00 00       	mov    $0x71,%eax
 8048c71:	81 7c 24 08 98 00 00 	cmpl   $0x98,0x8(%esp)
 8048c78:	00 
 8048c79:	74 7f                	je     8048cfa <phase_3+0x143>
 8048c7b:	e8 ba 04 00 00       	call   804913a <explode_bomb>
 8048c80:	b8 71 00 00 00       	mov    $0x71,%eax
 8048c85:	eb 73                	jmp    8048cfa <phase_3+0x143>
 8048c87:	b8 63 00 00 00       	mov    $0x63,%eax
 8048c8c:	81 7c 24 08 6e 03 00 	cmpl   $0x36e,0x8(%esp)
 8048c93:	00 
 8048c94:	74 64                	je     8048cfa <phase_3+0x143>
 8048c96:	e8 9f 04 00 00       	call   804913a <explode_bomb>
 8048c9b:	b8 63 00 00 00       	mov    $0x63,%eax
 8048ca0:	eb 58                	jmp    8048cfa <phase_3+0x143>
 8048ca2:	b8 6d 00 00 00       	mov    $0x6d,%eax
 8048ca7:	83 7c 24 08 32       	cmpl   $0x32,0x8(%esp)
 8048cac:	74 4c                	je     8048cfa <phase_3+0x143>
 8048cae:	e8 87 04 00 00       	call   804913a <explode_bomb>
 8048cb3:	b8 6d 00 00 00       	mov    $0x6d,%eax
 8048cb8:	eb 40                	jmp    8048cfa <phase_3+0x143>
 8048cba:	b8 6f 00 00 00       	mov    $0x6f,%eax
 8048cbf:	81 7c 24 08 11 01 00 	cmpl   $0x111,0x8(%esp)
 8048cc6:	00 
 8048cc7:	74 31                	je     8048cfa <phase_3+0x143>
 8048cc9:	e8 6c 04 00 00       	call   804913a <explode_bomb>
 8048cce:	b8 6f 00 00 00       	mov    $0x6f,%eax
 8048cd3:	eb 25                	jmp    8048cfa <phase_3+0x143>
 8048cd5:	b8 76 00 00 00       	mov    $0x76,%eax
 8048cda:	81 7c 24 08 94 02 00 	cmpl   $0x294,0x8(%esp)
 8048ce1:	00 
 8048ce2:	74 16                	je     8048cfa <phase_3+0x143>
 8048ce4:	e8 51 04 00 00       	call   804913a <explode_bomb>
 8048ce9:	b8 76 00 00 00       	mov    $0x76,%eax
 8048cee:	eb 0a                	jmp    8048cfa <phase_3+0x143>
 8048cf0:	e8 45 04 00 00       	call   804913a <explode_bomb>
 8048cf5:	b8 61 00 00 00       	mov    $0x61,%eax
 8048cfa:	3a 44 24 03          	cmp    0x3(%esp),%al
 8048cfe:	74 05                	je     8048d05 <phase_3+0x14e>
 8048d00:	e8 35 04 00 00       	call   804913a <explode_bomb>
 8048d05:	8b 44 24 0c          	mov    0xc(%esp),%eax
 8048d09:	65 33 05 14 00 00 00 	xor    %gs:0x14,%eax
 8048d10:	74 05                	je     8048d17 <phase_3+0x160>
 8048d12:	e8 79 fa ff ff       	call   8048790 <__stack_chk_fail@plt>
 8048d17:	83 c4 1c             	add    $0x1c,%esp
 8048d1a:	c3                   	ret    

08048d1b <func4>:
 8048d1b:	57                   	push   %edi
 8048d1c:	56                   	push   %esi
 8048d1d:	53                   	push   %ebx
 8048d1e:	8b 5c 24 10          	mov    0x10(%esp),%ebx
 8048d22:	8b 7c 24 14          	mov    0x14(%esp),%edi
 8048d26:	85 db                	test   %ebx,%ebx
 8048d28:	7e 2b                	jle    8048d55 <func4+0x3a>
 8048d2a:	89 f8                	mov    %edi,%eax
 8048d2c:	83 fb 01             	cmp    $0x1,%ebx
 8048d2f:	74 29                	je     8048d5a <func4+0x3f>
 8048d31:	83 ec 08             	sub    $0x8,%esp
 8048d34:	57                   	push   %edi
 8048d35:	8d 43 ff             	lea    -0x1(%ebx),%eax
 8048d38:	50                   	push   %eax
 8048d39:	e8 dd ff ff ff       	call   8048d1b <func4>
 8048d3e:	83 c4 08             	add    $0x8,%esp
 8048d41:	8d 34 07             	lea    (%edi,%eax,1),%esi
 8048d44:	57                   	push   %edi
 8048d45:	83 eb 02             	sub    $0x2,%ebx
 8048d48:	53                   	push   %ebx
 8048d49:	e8 cd ff ff ff       	call   8048d1b <func4>
 8048d4e:	83 c4 10             	add    $0x10,%esp
 8048d51:	01 f0                	add    %esi,%eax
 8048d53:	eb 05                	jmp    8048d5a <func4+0x3f>
 8048d55:	b8 00 00 00 00       	mov    $0x0,%eax
 8048d5a:	5b                   	pop    %ebx
 8048d5b:	5e                   	pop    %esi
 8048d5c:	5f                   	pop    %edi
 8048d5d:	c3                   	ret    

08048d5e <phase_4>:
 8048d5e:	83 ec 1c             	sub    $0x1c,%esp
 8048d61:	65 a1 14 00 00 00    	mov    %gs:0x14,%eax
 8048d67:	89 44 24 0c          	mov    %eax,0xc(%esp)
 8048d6b:	31 c0                	xor    %eax,%eax
 8048d6d:	8d 44 24 04          	lea    0x4(%esp),%eax
 8048d71:	50                   	push   %eax
 8048d72:	8d 44 24 0c          	lea    0xc(%esp),%eax
 8048d76:	50                   	push   %eax
 8048d77:	68 17 a2 04 08       	push   $0x804a217
 8048d7c:	ff 74 24 2c          	pushl  0x2c(%esp)
 8048d80:	e8 8b fa ff ff       	call   8048810 <__isoc99_sscanf@plt>
 8048d85:	83 c4 10             	add    $0x10,%esp
 8048d88:	83 f8 02             	cmp    $0x2,%eax
 8048d8b:	75 0c                	jne    8048d99 <phase_4+0x3b>
 8048d8d:	8b 44 24 04          	mov    0x4(%esp),%eax
 8048d91:	83 e8 02             	sub    $0x2,%eax
 8048d94:	83 f8 02             	cmp    $0x2,%eax
 8048d97:	76 05                	jbe    8048d9e <phase_4+0x40>
 8048d99:	e8 9c 03 00 00       	call   804913a <explode_bomb>
 8048d9e:	83 ec 08             	sub    $0x8,%esp
 8048da1:	ff 74 24 0c          	pushl  0xc(%esp)
 8048da5:	6a 09                	push   $0x9
 8048da7:	e8 6f ff ff ff       	call   8048d1b <func4>
 8048dac:	83 c4 10             	add    $0x10,%esp
 8048daf:	3b 44 24 08          	cmp    0x8(%esp),%eax
 8048db3:	74 05                	je     8048dba <phase_4+0x5c>
 8048db5:	e8 80 03 00 00       	call   804913a <explode_bomb>
 8048dba:	8b 44 24 0c          	mov    0xc(%esp),%eax
 8048dbe:	65 33 05 14 00 00 00 	xor    %gs:0x14,%eax
 8048dc5:	74 05                	je     8048dcc <phase_4+0x6e>
 8048dc7:	e8 c4 f9 ff ff       	call   8048790 <__stack_chk_fail@plt>
 8048dcc:	83 c4 1c             	add    $0x1c,%esp
 8048dcf:	c3                   	ret    

08048dd0 <phase_5>:
 8048dd0:	53                   	push   %ebx
 8048dd1:	83 ec 14             	sub    $0x14,%esp
 8048dd4:	8b 5c 24 1c          	mov    0x1c(%esp),%ebx
 8048dd8:	53                   	push   %ebx
 8048dd9:	e8 46 02 00 00       	call   8049024 <string_length>
 8048dde:	83 c4 10             	add    $0x10,%esp
 8048de1:	83 f8 06             	cmp    $0x6,%eax
 8048de4:	74 05                	je     8048deb <phase_5+0x1b>
 8048de6:	e8 4f 03 00 00       	call   804913a <explode_bomb>
 8048deb:	89 d8                	mov    %ebx,%eax
 8048ded:	83 c3 06             	add    $0x6,%ebx
 8048df0:	b9 00 00 00 00       	mov    $0x0,%ecx
 8048df5:	0f b6 10             	movzbl (%eax),%edx
 8048df8:	83 e2 0f             	and    $0xf,%edx
 8048dfb:	03 0c 95 a0 a0 04 08 	add    0x804a0a0(,%edx,4),%ecx
 8048e02:	83 c0 01             	add    $0x1,%eax
 8048e05:	39 d8                	cmp    %ebx,%eax
 8048e07:	75 ec                	jne    8048df5 <phase_5+0x25>
 8048e09:	83 f9 38             	cmp    $0x38,%ecx
 8048e0c:	74 05                	je     8048e13 <phase_5+0x43>
 8048e0e:	e8 27 03 00 00       	call   804913a <explode_bomb>
 8048e13:	83 c4 08             	add    $0x8,%esp
 8048e16:	5b                   	pop    %ebx
 8048e17:	c3                   	ret    

08048e18 <phase_6>:
 8048e18:	56                   	push   %esi
 8048e19:	53                   	push   %ebx
 8048e1a:	83 ec 4c             	sub    $0x4c,%esp
 8048e1d:	65 a1 14 00 00 00    	mov    %gs:0x14,%eax
 8048e23:	89 44 24 44          	mov    %eax,0x44(%esp)
 8048e27:	31 c0                	xor    %eax,%eax
 8048e29:	8d 44 24 14          	lea    0x14(%esp),%eax
 8048e2d:	50                   	push   %eax
 8048e2e:	ff 74 24 5c          	pushl  0x5c(%esp)
 8048e32:	e8 28 03 00 00       	call   804915f <read_six_numbers>
 8048e37:	83 c4 10             	add    $0x10,%esp
 8048e3a:	be 00 00 00 00       	mov    $0x0,%esi
 8048e3f:	8b 44 b4 0c          	mov    0xc(%esp,%esi,4),%eax
 8048e43:	83 e8 01             	sub    $0x1,%eax
 8048e46:	83 f8 05             	cmp    $0x5,%eax
 8048e49:	76 05                	jbe    8048e50 <phase_6+0x38>
 8048e4b:	e8 ea 02 00 00       	call   804913a <explode_bomb>
 8048e50:	83 c6 01             	add    $0x1,%esi
 8048e53:	83 fe 06             	cmp    $0x6,%esi
 8048e56:	74 33                	je     8048e8b <phase_6+0x73>
 8048e58:	89 f3                	mov    %esi,%ebx
 8048e5a:	8b 44 9c 0c          	mov    0xc(%esp,%ebx,4),%eax
 8048e5e:	39 44 b4 08          	cmp    %eax,0x8(%esp,%esi,4)
 8048e62:	75 05                	jne    8048e69 <phase_6+0x51>
 8048e64:	e8 d1 02 00 00       	call   804913a <explode_bomb>
 8048e69:	83 c3 01             	add    $0x1,%ebx
 8048e6c:	83 fb 05             	cmp    $0x5,%ebx
 8048e6f:	7e e9                	jle    8048e5a <phase_6+0x42>
 8048e71:	eb cc                	jmp    8048e3f <phase_6+0x27>
 8048e73:	8b 52 08             	mov    0x8(%edx),%edx
 8048e76:	83 c0 01             	add    $0x1,%eax
 8048e79:	39 c8                	cmp    %ecx,%eax
 8048e7b:	75 f6                	jne    8048e73 <phase_6+0x5b>
 8048e7d:	89 54 b4 24          	mov    %edx,0x24(%esp,%esi,4)
 8048e81:	83 c3 01             	add    $0x1,%ebx
 8048e84:	83 fb 06             	cmp    $0x6,%ebx
 8048e87:	75 07                	jne    8048e90 <phase_6+0x78>
 8048e89:	eb 1c                	jmp    8048ea7 <phase_6+0x8f>
 8048e8b:	bb 00 00 00 00       	mov    $0x0,%ebx
 8048e90:	89 de                	mov    %ebx,%esi
 8048e92:	8b 4c 9c 0c          	mov    0xc(%esp,%ebx,4),%ecx
 8048e96:	b8 01 00 00 00       	mov    $0x1,%eax
 8048e9b:	ba 3c c1 04 08       	mov    $0x804c13c,%edx
 8048ea0:	83 f9 01             	cmp    $0x1,%ecx
 8048ea3:	7f ce                	jg     8048e73 <phase_6+0x5b>
 8048ea5:	eb d6                	jmp    8048e7d <phase_6+0x65>
 8048ea7:	8b 5c 24 24          	mov    0x24(%esp),%ebx
 8048eab:	8d 44 24 24          	lea    0x24(%esp),%eax
 8048eaf:	8d 74 24 38          	lea    0x38(%esp),%esi
 8048eb3:	89 d9                	mov    %ebx,%ecx
 8048eb5:	8b 50 04             	mov    0x4(%eax),%edx
 8048eb8:	89 51 08             	mov    %edx,0x8(%ecx)
 8048ebb:	83 c0 04             	add    $0x4,%eax
 8048ebe:	89 d1                	mov    %edx,%ecx
 8048ec0:	39 f0                	cmp    %esi,%eax
 8048ec2:	75 f1                	jne    8048eb5 <phase_6+0x9d>
 8048ec4:	c7 42 08 00 00 00 00 	movl   $0x0,0x8(%edx)
 8048ecb:	be 05 00 00 00       	mov    $0x5,%esi
 8048ed0:	8b 43 08             	mov    0x8(%ebx),%eax
 8048ed3:	8b 00                	mov    (%eax),%eax
 8048ed5:	39 03                	cmp    %eax,(%ebx)
 8048ed7:	7d 05                	jge    8048ede <phase_6+0xc6>
 8048ed9:	e8 5c 02 00 00       	call   804913a <explode_bomb>
 8048ede:	8b 5b 08             	mov    0x8(%ebx),%ebx
 8048ee1:	83 ee 01             	sub    $0x1,%esi
 8048ee4:	75 ea                	jne    8048ed0 <phase_6+0xb8>
 8048ee6:	8b 44 24 3c          	mov    0x3c(%esp),%eax
 8048eea:	65 33 05 14 00 00 00 	xor    %gs:0x14,%eax
 8048ef1:	74 05                	je     8048ef8 <phase_6+0xe0>
 8048ef3:	e8 98 f8 ff ff       	call   8048790 <__stack_chk_fail@plt>
 8048ef8:	83 c4 44             	add    $0x44,%esp
 8048efb:	5b                   	pop    %ebx
 8048efc:	5e                   	pop    %esi
 8048efd:	c3                   	ret    

08048efe <fun7>:
 8048efe:	53                   	push   %ebx
 8048eff:	83 ec 08             	sub    $0x8,%esp
 8048f02:	8b 54 24 10          	mov    0x10(%esp),%edx
 8048f06:	8b 4c 24 14          	mov    0x14(%esp),%ecx
 8048f0a:	85 d2                	test   %edx,%edx
 8048f0c:	74 37                	je     8048f45 <fun7+0x47>
 8048f0e:	8b 1a                	mov    (%edx),%ebx
 8048f10:	39 cb                	cmp    %ecx,%ebx
 8048f12:	7e 13                	jle    8048f27 <fun7+0x29>
 8048f14:	83 ec 08             	sub    $0x8,%esp
 8048f17:	51                   	push   %ecx
 8048f18:	ff 72 04             	pushl  0x4(%edx)
 8048f1b:	e8 de ff ff ff       	call   8048efe <fun7>
 8048f20:	83 c4 10             	add    $0x10,%esp
 8048f23:	01 c0                	add    %eax,%eax
 8048f25:	eb 23                	jmp    8048f4a <fun7+0x4c>
 8048f27:	b8 00 00 00 00       	mov    $0x0,%eax
 8048f2c:	39 cb                	cmp    %ecx,%ebx
 8048f2e:	74 1a                	je     8048f4a <fun7+0x4c>
 8048f30:	83 ec 08             	sub    $0x8,%esp
 8048f33:	51                   	push   %ecx
 8048f34:	ff 72 08             	pushl  0x8(%edx)
 8048f37:	e8 c2 ff ff ff       	call   8048efe <fun7>
 8048f3c:	83 c4 10             	add    $0x10,%esp
 8048f3f:	8d 44 00 01          	lea    0x1(%eax,%eax,1),%eax
 8048f43:	eb 05                	jmp    8048f4a <fun7+0x4c>
 8048f45:	b8 ff ff ff ff       	mov    $0xffffffff,%eax
 8048f4a:	83 c4 08             	add    $0x8,%esp
 8048f4d:	5b                   	pop    %ebx
 8048f4e:	c3                   	ret    

08048f4f <secret_phase>:
 8048f4f:	53                   	push   %ebx
 8048f50:	83 ec 08             	sub    $0x8,%esp
 8048f53:	e8 42 02 00 00       	call   804919a <read_line>
 8048f58:	83 ec 04             	sub    $0x4,%esp
 8048f5b:	6a 0a                	push   $0xa
 8048f5d:	6a 00                	push   $0x0
 8048f5f:	50                   	push   %eax
 8048f60:	e8 1b f9 ff ff       	call   8048880 <strtol@plt>
 8048f65:	89 c3                	mov    %eax,%ebx
 8048f67:	8d 40 ff             	lea    -0x1(%eax),%eax
 8048f6a:	83 c4 10             	add    $0x10,%esp
 8048f6d:	3d e8 03 00 00       	cmp    $0x3e8,%eax
 8048f72:	76 05                	jbe    8048f79 <secret_phase+0x2a>
 8048f74:	e8 c1 01 00 00       	call   804913a <explode_bomb>
 8048f79:	83 ec 08             	sub    $0x8,%esp
 8048f7c:	53                   	push   %ebx
 8048f7d:	68 88 c0 04 08       	push   $0x804c088
 8048f82:	e8 77 ff ff ff       	call   8048efe <fun7>
 8048f87:	83 c4 10             	add    $0x10,%esp
 8048f8a:	83 f8 06             	cmp    $0x6,%eax
 8048f8d:	74 05                	je     8048f94 <secret_phase+0x45>
 8048f8f:	e8 a6 01 00 00       	call   804913a <explode_bomb>
 8048f94:	83 ec 0c             	sub    $0xc,%esp
 8048f97:	68 e0 a0 04 08       	push   $0x804a0e0
 8048f9c:	e8 1f f8 ff ff       	call   80487c0 <puts@plt>
 8048fa1:	e8 ed 02 00 00       	call   8049293 <phase_defused>
 8048fa6:	83 c4 18             	add    $0x18,%esp
 8048fa9:	5b                   	pop    %ebx
 8048faa:	c3                   	ret    

08048fab <sig_handler>:
 8048fab:	83 ec 18             	sub    $0x18,%esp
 8048fae:	68 08 a1 04 08       	push   $0x804a108
 8048fb3:	e8 08 f8 ff ff       	call   80487c0 <puts@plt>
 8048fb8:	c7 04 24 03 00 00 00 	movl   $0x3,(%esp)
 8048fbf:	e8 ac f7 ff ff       	call   8048770 <sleep@plt>
 8048fc4:	83 c4 08             	add    $0x8,%esp
 8048fc7:	68 ca a1 04 08       	push   $0x804a1ca
 8048fcc:	6a 01                	push   $0x1
 8048fce:	e8 6d f8 ff ff       	call   8048840 <__printf_chk@plt>
 8048fd3:	83 c4 04             	add    $0x4,%esp
 8048fd6:	ff 35 c4 c3 04 08    	pushl  0x804c3c4
 8048fdc:	e8 5f f7 ff ff       	call   8048740 <fflush@plt>
 8048fe1:	c7 04 24 01 00 00 00 	movl   $0x1,(%esp)
 8048fe8:	e8 83 f7 ff ff       	call   8048770 <sleep@plt>
 8048fed:	c7 04 24 d2 a1 04 08 	movl   $0x804a1d2,(%esp)
 8048ff4:	e8 c7 f7 ff ff       	call   80487c0 <puts@plt>
 8048ff9:	c7 04 24 10 00 00 00 	movl   $0x10,(%esp)
 8049000:	e8 db f7 ff ff       	call   80487e0 <exit@plt>

08049005 <invalid_phase>:
 8049005:	83 ec 10             	sub    $0x10,%esp
 8049008:	ff 74 24 14          	pushl  0x14(%esp)
 804900c:	68 da a1 04 08       	push   $0x804a1da
 8049011:	6a 01                	push   $0x1
 8049013:	e8 28 f8 ff ff       	call   8048840 <__printf_chk@plt>
 8049018:	c7 04 24 08 00 00 00 	movl   $0x8,(%esp)
 804901f:	e8 bc f7 ff ff       	call   80487e0 <exit@plt>

08049024 <string_length>:
 8049024:	8b 54 24 04          	mov    0x4(%esp),%edx
 8049028:	80 3a 00             	cmpb   $0x0,(%edx)
 804902b:	74 10                	je     804903d <string_length+0x19>
 804902d:	b8 00 00 00 00       	mov    $0x0,%eax
 8049032:	83 c0 01             	add    $0x1,%eax
 8049035:	80 3c 02 00          	cmpb   $0x0,(%edx,%eax,1)
 8049039:	75 f7                	jne    8049032 <string_length+0xe>
 804903b:	f3 c3                	repz ret 
 804903d:	b8 00 00 00 00       	mov    $0x0,%eax
 8049042:	c3                   	ret    

08049043 <strings_not_equal>:
 8049043:	57                   	push   %edi
 8049044:	56                   	push   %esi
 8049045:	53                   	push   %ebx
 8049046:	8b 5c 24 10          	mov    0x10(%esp),%ebx
 804904a:	8b 74 24 14          	mov    0x14(%esp),%esi
 804904e:	53                   	push   %ebx
 804904f:	e8 d0 ff ff ff       	call   8049024 <string_length>
 8049054:	89 c7                	mov    %eax,%edi
 8049056:	89 34 24             	mov    %esi,(%esp)
 8049059:	e8 c6 ff ff ff       	call   8049024 <string_length>
 804905e:	83 c4 04             	add    $0x4,%esp
 8049061:	ba 01 00 00 00       	mov    $0x1,%edx
 8049066:	39 c7                	cmp    %eax,%edi
 8049068:	75 38                	jne    80490a2 <strings_not_equal+0x5f>
 804906a:	0f b6 03             	movzbl (%ebx),%eax
 804906d:	84 c0                	test   %al,%al
 804906f:	74 1e                	je     804908f <strings_not_equal+0x4c>
 8049071:	3a 06                	cmp    (%esi),%al
 8049073:	74 06                	je     804907b <strings_not_equal+0x38>
 8049075:	eb 1f                	jmp    8049096 <strings_not_equal+0x53>
 8049077:	3a 06                	cmp    (%esi),%al
 8049079:	75 22                	jne    804909d <strings_not_equal+0x5a>
 804907b:	83 c3 01             	add    $0x1,%ebx
 804907e:	83 c6 01             	add    $0x1,%esi
 8049081:	0f b6 03             	movzbl (%ebx),%eax
 8049084:	84 c0                	test   %al,%al
 8049086:	75 ef                	jne    8049077 <strings_not_equal+0x34>
 8049088:	ba 00 00 00 00       	mov    $0x0,%edx
 804908d:	eb 13                	jmp    80490a2 <strings_not_equal+0x5f>
 804908f:	ba 00 00 00 00       	mov    $0x0,%edx
 8049094:	eb 0c                	jmp    80490a2 <strings_not_equal+0x5f>
 8049096:	ba 01 00 00 00       	mov    $0x1,%edx
 804909b:	eb 05                	jmp    80490a2 <strings_not_equal+0x5f>
 804909d:	ba 01 00 00 00       	mov    $0x1,%edx
 80490a2:	89 d0                	mov    %edx,%eax
 80490a4:	5b                   	pop    %ebx
 80490a5:	5e                   	pop    %esi
 80490a6:	5f                   	pop    %edi
 80490a7:	c3                   	ret    

080490a8 <initialize_bomb>:
 80490a8:	83 ec 14             	sub    $0x14,%esp
 80490ab:	68 ab 8f 04 08       	push   $0x8048fab
 80490b0:	6a 02                	push   $0x2
 80490b2:	e8 a9 f6 ff ff       	call   8048760 <signal@plt>
 80490b7:	83 c4 1c             	add    $0x1c,%esp
 80490ba:	c3                   	ret    

080490bb <initialize_bomb_solve>:
 80490bb:	f3 c3                	repz ret 

080490bd <blank_line>:
 80490bd:	56                   	push   %esi
 80490be:	53                   	push   %ebx
 80490bf:	83 ec 04             	sub    $0x4,%esp
 80490c2:	8b 74 24 10          	mov    0x10(%esp),%esi
 80490c6:	eb 14                	jmp    80490dc <blank_line+0x1f>
 80490c8:	e8 e3 f7 ff ff       	call   80488b0 <__ctype_b_loc@plt>
 80490cd:	83 c6 01             	add    $0x1,%esi
 80490d0:	0f be db             	movsbl %bl,%ebx
 80490d3:	8b 00                	mov    (%eax),%eax
 80490d5:	f6 44 58 01 20       	testb  $0x20,0x1(%eax,%ebx,2)
 80490da:	74 0e                	je     80490ea <blank_line+0x2d>
 80490dc:	0f b6 1e             	movzbl (%esi),%ebx
 80490df:	84 db                	test   %bl,%bl
 80490e1:	75 e5                	jne    80490c8 <blank_line+0xb>
 80490e3:	b8 01 00 00 00       	mov    $0x1,%eax
 80490e8:	eb 05                	jmp    80490ef <blank_line+0x32>
 80490ea:	b8 00 00 00 00       	mov    $0x0,%eax
 80490ef:	83 c4 04             	add    $0x4,%esp
 80490f2:	5b                   	pop    %ebx
 80490f3:	5e                   	pop    %esi
 80490f4:	c3                   	ret    

080490f5 <skip>:
 80490f5:	53                   	push   %ebx
 80490f6:	83 ec 08             	sub    $0x8,%esp
 80490f9:	83 ec 04             	sub    $0x4,%esp
 80490fc:	ff 35 d0 c3 04 08    	pushl  0x804c3d0
 8049102:	6a 50                	push   $0x50
 8049104:	a1 cc c3 04 08       	mov    0x804c3cc,%eax
 8049109:	8d 04 80             	lea    (%eax,%eax,4),%eax
 804910c:	c1 e0 04             	shl    $0x4,%eax
 804910f:	05 e0 c3 04 08       	add    $0x804c3e0,%eax
 8049114:	50                   	push   %eax
 8049115:	e8 36 f6 ff ff       	call   8048750 <fgets@plt>
 804911a:	89 c3                	mov    %eax,%ebx
 804911c:	83 c4 10             	add    $0x10,%esp
 804911f:	85 c0                	test   %eax,%eax
 8049121:	74 10                	je     8049133 <skip+0x3e>
 8049123:	83 ec 0c             	sub    $0xc,%esp
 8049126:	50                   	push   %eax
 8049127:	e8 91 ff ff ff       	call   80490bd <blank_line>
 804912c:	83 c4 10             	add    $0x10,%esp
 804912f:	85 c0                	test   %eax,%eax
 8049131:	75 c6                	jne    80490f9 <skip+0x4>
 8049133:	89 d8                	mov    %ebx,%eax
 8049135:	83 c4 08             	add    $0x8,%esp
 8049138:	5b                   	pop    %ebx
 8049139:	c3                   	ret    

0804913a <explode_bomb>:
 804913a:	83 ec 18             	sub    $0x18,%esp
 804913d:	68 eb a1 04 08       	push   $0x804a1eb
 8049142:	e8 79 f6 ff ff       	call   80487c0 <puts@plt>
 8049147:	c7 04 24 f4 a1 04 08 	movl   $0x804a1f4,(%esp)
 804914e:	e8 6d f6 ff ff       	call   80487c0 <puts@plt>
 8049153:	c7 04 24 08 00 00 00 	movl   $0x8,(%esp)
 804915a:	e8 81 f6 ff ff       	call   80487e0 <exit@plt>

0804915f <read_six_numbers>:
 804915f:	83 ec 0c             	sub    $0xc,%esp
 8049162:	8b 44 24 14          	mov    0x14(%esp),%eax
 8049166:	8d 50 14             	lea    0x14(%eax),%edx
 8049169:	52                   	push   %edx
 804916a:	8d 50 10             	lea    0x10(%eax),%edx
 804916d:	52                   	push   %edx
 804916e:	8d 50 0c             	lea    0xc(%eax),%edx
 8049171:	52                   	push   %edx
 8049172:	8d 50 08             	lea    0x8(%eax),%edx
 8049175:	52                   	push   %edx
 8049176:	8d 50 04             	lea    0x4(%eax),%edx
 8049179:	52                   	push   %edx
 804917a:	50                   	push   %eax
 804917b:	68 0b a2 04 08       	push   $0x804a20b
 8049180:	ff 74 24 2c          	pushl  0x2c(%esp)
 8049184:	e8 87 f6 ff ff       	call   8048810 <__isoc99_sscanf@plt>
 8049189:	83 c4 20             	add    $0x20,%esp
 804918c:	83 f8 05             	cmp    $0x5,%eax
 804918f:	7f 05                	jg     8049196 <read_six_numbers+0x37>
 8049191:	e8 a4 ff ff ff       	call   804913a <explode_bomb>
 8049196:	83 c4 0c             	add    $0xc,%esp
 8049199:	c3                   	ret    

0804919a <read_line>:
 804919a:	57                   	push   %edi
 804919b:	56                   	push   %esi
 804919c:	53                   	push   %ebx
 804919d:	e8 53 ff ff ff       	call   80490f5 <skip>
 80491a2:	85 c0                	test   %eax,%eax
 80491a4:	75 70                	jne    8049216 <read_line+0x7c>
 80491a6:	a1 c0 c3 04 08       	mov    0x804c3c0,%eax
 80491ab:	39 05 d0 c3 04 08    	cmp    %eax,0x804c3d0
 80491b1:	75 19                	jne    80491cc <read_line+0x32>
 80491b3:	83 ec 0c             	sub    $0xc,%esp
 80491b6:	68 1d a2 04 08       	push   $0x804a21d
 80491bb:	e8 00 f6 ff ff       	call   80487c0 <puts@plt>
 80491c0:	c7 04 24 08 00 00 00 	movl   $0x8,(%esp)
 80491c7:	e8 14 f6 ff ff       	call   80487e0 <exit@plt>
 80491cc:	83 ec 0c             	sub    $0xc,%esp
 80491cf:	68 3b a2 04 08       	push   $0x804a23b
 80491d4:	e8 d7 f5 ff ff       	call   80487b0 <getenv@plt>
 80491d9:	83 c4 10             	add    $0x10,%esp
 80491dc:	85 c0                	test   %eax,%eax
 80491de:	74 0a                	je     80491ea <read_line+0x50>
 80491e0:	83 ec 0c             	sub    $0xc,%esp
 80491e3:	6a 00                	push   $0x0
 80491e5:	e8 f6 f5 ff ff       	call   80487e0 <exit@plt>
 80491ea:	a1 c0 c3 04 08       	mov    0x804c3c0,%eax
 80491ef:	a3 d0 c3 04 08       	mov    %eax,0x804c3d0
 80491f4:	e8 fc fe ff ff       	call   80490f5 <skip>
 80491f9:	85 c0                	test   %eax,%eax
 80491fb:	75 19                	jne    8049216 <read_line+0x7c>
 80491fd:	83 ec 0c             	sub    $0xc,%esp
 8049200:	68 1d a2 04 08       	push   $0x804a21d
 8049205:	e8 b6 f5 ff ff       	call   80487c0 <puts@plt>
 804920a:	c7 04 24 00 00 00 00 	movl   $0x0,(%esp)
 8049211:	e8 ca f5 ff ff       	call   80487e0 <exit@plt>
 8049216:	8b 15 cc c3 04 08    	mov    0x804c3cc,%edx
 804921c:	8d 1c 92             	lea    (%edx,%edx,4),%ebx
 804921f:	c1 e3 04             	shl    $0x4,%ebx
 8049222:	81 c3 e0 c3 04 08    	add    $0x804c3e0,%ebx
 8049228:	b8 00 00 00 00       	mov    $0x0,%eax
 804922d:	b9 ff ff ff ff       	mov    $0xffffffff,%ecx
 8049232:	89 df                	mov    %ebx,%edi
 8049234:	f2 ae                	repnz scas %es:(%edi),%al
 8049236:	f7 d1                	not    %ecx
 8049238:	83 e9 01             	sub    $0x1,%ecx
 804923b:	83 f9 4e             	cmp    $0x4e,%ecx
 804923e:	7e 36                	jle    8049276 <read_line+0xdc>
 8049240:	83 ec 0c             	sub    $0xc,%esp
 8049243:	68 46 a2 04 08       	push   $0x804a246
 8049248:	e8 73 f5 ff ff       	call   80487c0 <puts@plt>
 804924d:	a1 cc c3 04 08       	mov    0x804c3cc,%eax
 8049252:	8d 50 01             	lea    0x1(%eax),%edx
 8049255:	89 15 cc c3 04 08    	mov    %edx,0x804c3cc
 804925b:	6b c0 50             	imul   $0x50,%eax,%eax
 804925e:	05 e0 c3 04 08       	add    $0x804c3e0,%eax
 8049263:	be 61 a2 04 08       	mov    $0x804a261,%esi
 8049268:	b9 04 00 00 00       	mov    $0x4,%ecx
 804926d:	89 c7                	mov    %eax,%edi
 804926f:	f3 a5                	rep movsl %ds:(%esi),%es:(%edi)
 8049271:	e8 c4 fe ff ff       	call   804913a <explode_bomb>
 8049276:	8d 04 92             	lea    (%edx,%edx,4),%eax
 8049279:	c1 e0 04             	shl    $0x4,%eax
 804927c:	c6 84 01 df c3 04 08 	movb   $0x0,0x804c3df(%ecx,%eax,1)
 8049283:	00 
 8049284:	83 c2 01             	add    $0x1,%edx
 8049287:	89 15 cc c3 04 08    	mov    %edx,0x804c3cc
 804928d:	89 d8                	mov    %ebx,%eax
 804928f:	5b                   	pop    %ebx
 8049290:	5e                   	pop    %esi
 8049291:	5f                   	pop    %edi
 8049292:	c3                   	ret    

08049293 <phase_defused>:
 8049293:	83 ec 6c             	sub    $0x6c,%esp
 8049296:	65 a1 14 00 00 00    	mov    %gs:0x14,%eax
 804929c:	89 44 24 5c          	mov    %eax,0x5c(%esp)
 80492a0:	31 c0                	xor    %eax,%eax
 80492a2:	83 3d cc c3 04 08 06 	cmpl   $0x6,0x804c3cc
 80492a9:	75 73                	jne    804931e <phase_defused+0x8b>
 80492ab:	83 ec 0c             	sub    $0xc,%esp
 80492ae:	8d 44 24 18          	lea    0x18(%esp),%eax
 80492b2:	50                   	push   %eax
 80492b3:	8d 44 24 18          	lea    0x18(%esp),%eax
 80492b7:	50                   	push   %eax
 80492b8:	8d 44 24 18          	lea    0x18(%esp),%eax
 80492bc:	50                   	push   %eax
 80492bd:	68 71 a2 04 08       	push   $0x804a271
 80492c2:	68 d0 c4 04 08       	push   $0x804c4d0
 80492c7:	e8 44 f5 ff ff       	call   8048810 <__isoc99_sscanf@plt>
 80492cc:	83 c4 20             	add    $0x20,%esp
 80492cf:	83 f8 03             	cmp    $0x3,%eax
 80492d2:	75 3a                	jne    804930e <phase_defused+0x7b>
 80492d4:	83 ec 08             	sub    $0x8,%esp
 80492d7:	68 7a a2 04 08       	push   $0x804a27a
 80492dc:	8d 44 24 18          	lea    0x18(%esp),%eax
 80492e0:	50                   	push   %eax
 80492e1:	e8 5d fd ff ff       	call   8049043 <strings_not_equal>
 80492e6:	83 c4 10             	add    $0x10,%esp
 80492e9:	85 c0                	test   %eax,%eax
 80492eb:	75 21                	jne    804930e <phase_defused+0x7b>
 80492ed:	83 ec 0c             	sub    $0xc,%esp
 80492f0:	68 40 a1 04 08       	push   $0x804a140
 80492f5:	e8 c6 f4 ff ff       	call   80487c0 <puts@plt>
 80492fa:	c7 04 24 68 a1 04 08 	movl   $0x804a168,(%esp)
 8049301:	e8 ba f4 ff ff       	call   80487c0 <puts@plt>
 8049306:	e8 44 fc ff ff       	call   8048f4f <secret_phase>
 804930b:	83 c4 10             	add    $0x10,%esp
 804930e:	83 ec 0c             	sub    $0xc,%esp
 8049311:	68 a0 a1 04 08       	push   $0x804a1a0
 8049316:	e8 a5 f4 ff ff       	call   80487c0 <puts@plt>
 804931b:	83 c4 10             	add    $0x10,%esp
 804931e:	8b 44 24 5c          	mov    0x5c(%esp),%eax
 8049322:	65 33 05 14 00 00 00 	xor    %gs:0x14,%eax
 8049329:	74 05                	je     8049330 <phase_defused+0x9d>
 804932b:	e8 60 f4 ff ff       	call   8048790 <__stack_chk_fail@plt>
 8049330:	83 c4 6c             	add    $0x6c,%esp
 8049333:	c3                   	ret    

08049334 <sigalrm_handler>:
 8049334:	83 ec 0c             	sub    $0xc,%esp
 8049337:	6a 00                	push   $0x0
 8049339:	68 d0 a2 04 08       	push   $0x804a2d0
 804933e:	6a 01                	push   $0x1
 8049340:	ff 35 a0 c3 04 08    	pushl  0x804c3a0
 8049346:	e8 15 f5 ff ff       	call   8048860 <__fprintf_chk@plt>
 804934b:	c7 04 24 01 00 00 00 	movl   $0x1,(%esp)
 8049352:	e8 89 f4 ff ff       	call   80487e0 <exit@plt>

08049357 <rio_readlineb>:
 8049357:	55                   	push   %ebp
 8049358:	57                   	push   %edi
 8049359:	56                   	push   %esi
 804935a:	53                   	push   %ebx
 804935b:	83 ec 2c             	sub    $0x2c,%esp
 804935e:	89 d7                	mov    %edx,%edi
 8049360:	89 4c 24 0c          	mov    %ecx,0xc(%esp)
 8049364:	65 8b 15 14 00 00 00 	mov    %gs:0x14,%edx
 804936b:	89 54 24 1c          	mov    %edx,0x1c(%esp)
 804936f:	31 d2                	xor    %edx,%edx
 8049371:	83 f9 01             	cmp    $0x1,%ecx
 8049374:	76 79                	jbe    80493ef <rio_readlineb+0x98>
 8049376:	89 c3                	mov    %eax,%ebx
 8049378:	89 4c 24 08          	mov    %ecx,0x8(%esp)
 804937c:	bd 01 00 00 00       	mov    $0x1,%ebp
 8049381:	8d 73 0c             	lea    0xc(%ebx),%esi
 8049384:	eb 2d                	jmp    80493b3 <rio_readlineb+0x5c>
 8049386:	83 ec 04             	sub    $0x4,%esp
 8049389:	68 00 20 00 00       	push   $0x2000
 804938e:	56                   	push   %esi
 804938f:	ff 33                	pushl  (%ebx)
 8049391:	e8 9a f3 ff ff       	call   8048730 <read@plt>
 8049396:	89 43 04             	mov    %eax,0x4(%ebx)
 8049399:	83 c4 10             	add    $0x10,%esp
 804939c:	85 c0                	test   %eax,%eax
 804939e:	79 0c                	jns    80493ac <rio_readlineb+0x55>
 80493a0:	e8 8b f4 ff ff       	call   8048830 <__errno_location@plt>
 80493a5:	83 38 04             	cmpl   $0x4,(%eax)
 80493a8:	74 09                	je     80493b3 <rio_readlineb+0x5c>
 80493aa:	eb 62                	jmp    804940e <rio_readlineb+0xb7>
 80493ac:	85 c0                	test   %eax,%eax
 80493ae:	74 63                	je     8049413 <rio_readlineb+0xbc>
 80493b0:	89 73 08             	mov    %esi,0x8(%ebx)
 80493b3:	8b 43 04             	mov    0x4(%ebx),%eax
 80493b6:	85 c0                	test   %eax,%eax
 80493b8:	7e cc                	jle    8049386 <rio_readlineb+0x2f>
 80493ba:	8b 4b 08             	mov    0x8(%ebx),%ecx
 80493bd:	0f b6 11             	movzbl (%ecx),%edx
 80493c0:	88 54 24 1b          	mov    %dl,0x1b(%esp)
 80493c4:	83 c1 01             	add    $0x1,%ecx
 80493c7:	89 4b 08             	mov    %ecx,0x8(%ebx)
 80493ca:	83 e8 01             	sub    $0x1,%eax
 80493cd:	89 43 04             	mov    %eax,0x4(%ebx)
 80493d0:	83 c7 01             	add    $0x1,%edi
 80493d3:	88 57 ff             	mov    %dl,-0x1(%edi)
 80493d6:	80 fa 0a             	cmp    $0xa,%dl
 80493d9:	75 09                	jne    80493e4 <rio_readlineb+0x8d>
 80493db:	eb 1d                	jmp    80493fa <rio_readlineb+0xa3>
 80493dd:	83 fd 01             	cmp    $0x1,%ebp
 80493e0:	75 18                	jne    80493fa <rio_readlineb+0xa3>
 80493e2:	eb 1b                	jmp    80493ff <rio_readlineb+0xa8>
 80493e4:	83 c5 01             	add    $0x1,%ebp
 80493e7:	3b 6c 24 08          	cmp    0x8(%esp),%ebp
 80493eb:	74 09                	je     80493f6 <rio_readlineb+0x9f>
 80493ed:	eb c4                	jmp    80493b3 <rio_readlineb+0x5c>
 80493ef:	bd 01 00 00 00       	mov    $0x1,%ebp
 80493f4:	eb 04                	jmp    80493fa <rio_readlineb+0xa3>
 80493f6:	8b 6c 24 0c          	mov    0xc(%esp),%ebp
 80493fa:	c6 07 00             	movb   $0x0,(%edi)
 80493fd:	89 e8                	mov    %ebp,%eax
 80493ff:	8b 54 24 1c          	mov    0x1c(%esp),%edx
 8049403:	65 33 15 14 00 00 00 	xor    %gs:0x14,%edx
 804940a:	74 17                	je     8049423 <rio_readlineb+0xcc>
 804940c:	eb 10                	jmp    804941e <rio_readlineb+0xc7>
 804940e:	b8 ff ff ff ff       	mov    $0xffffffff,%eax
 8049413:	85 c0                	test   %eax,%eax
 8049415:	74 c6                	je     80493dd <rio_readlineb+0x86>
 8049417:	b8 ff ff ff ff       	mov    $0xffffffff,%eax
 804941c:	eb e1                	jmp    80493ff <rio_readlineb+0xa8>
 804941e:	e8 6d f3 ff ff       	call   8048790 <__stack_chk_fail@plt>
 8049423:	83 c4 2c             	add    $0x2c,%esp
 8049426:	5b                   	pop    %ebx
 8049427:	5e                   	pop    %esi
 8049428:	5f                   	pop    %edi
 8049429:	5d                   	pop    %ebp
 804942a:	c3                   	ret    

0804942b <submitr>:
 804942b:	55                   	push   %ebp
 804942c:	57                   	push   %edi
 804942d:	56                   	push   %esi
 804942e:	53                   	push   %ebx
 804942f:	81 ec 60 a0 00 00    	sub    $0xa060,%esp
 8049435:	8b b4 24 74 a0 00 00 	mov    0xa074(%esp),%esi
 804943c:	8b 84 24 7c a0 00 00 	mov    0xa07c(%esp),%eax
 8049443:	89 44 24 10          	mov    %eax,0x10(%esp)
 8049447:	8b 84 24 80 a0 00 00 	mov    0xa080(%esp),%eax
 804944e:	89 44 24 14          	mov    %eax,0x14(%esp)
 8049452:	8b 84 24 84 a0 00 00 	mov    0xa084(%esp),%eax
 8049459:	89 44 24 18          	mov    %eax,0x18(%esp)
 804945d:	8b 9c 24 88 a0 00 00 	mov    0xa088(%esp),%ebx
 8049464:	8b 84 24 8c a0 00 00 	mov    0xa08c(%esp),%eax
 804946b:	89 44 24 1c          	mov    %eax,0x1c(%esp)
 804946f:	65 a1 14 00 00 00    	mov    %gs:0x14,%eax
 8049475:	89 84 24 50 a0 00 00 	mov    %eax,0xa050(%esp)
 804947c:	31 c0                	xor    %eax,%eax
 804947e:	c7 44 24 30 00 00 00 	movl   $0x0,0x30(%esp)
 8049485:	00 
 8049486:	6a 00                	push   $0x0
 8049488:	6a 01                	push   $0x1
 804948a:	6a 02                	push   $0x2
 804948c:	e8 bf f3 ff ff       	call   8048850 <socket@plt>
 8049491:	89 44 24 18          	mov    %eax,0x18(%esp)
 8049495:	83 c4 10             	add    $0x10,%esp
 8049498:	85 c0                	test   %eax,%eax
 804949a:	79 52                	jns    80494ee <submitr+0xc3>
 804949c:	8b 44 24 18          	mov    0x18(%esp),%eax
 80494a0:	c7 00 45 72 72 6f    	movl   $0x6f727245,(%eax)
 80494a6:	c7 40 04 72 3a 20 43 	movl   $0x43203a72,0x4(%eax)
 80494ad:	c7 40 08 6c 69 65 6e 	movl   $0x6e65696c,0x8(%eax)
 80494b4:	c7 40 0c 74 20 75 6e 	movl   $0x6e752074,0xc(%eax)
 80494bb:	c7 40 10 61 62 6c 65 	movl   $0x656c6261,0x10(%eax)
 80494c2:	c7 40 14 20 74 6f 20 	movl   $0x206f7420,0x14(%eax)
 80494c9:	c7 40 18 63 72 65 61 	movl   $0x61657263,0x18(%eax)
 80494d0:	c7 40 1c 74 65 20 73 	movl   $0x73206574,0x1c(%eax)
 80494d7:	c7 40 20 6f 63 6b 65 	movl   $0x656b636f,0x20(%eax)
 80494de:	66 c7 40 24 74 00    	movw   $0x74,0x24(%eax)
 80494e4:	b8 ff ff ff ff       	mov    $0xffffffff,%eax
 80494e9:	e9 3f 06 00 00       	jmp    8049b2d <submitr+0x702>
 80494ee:	83 ec 0c             	sub    $0xc,%esp
 80494f1:	56                   	push   %esi
 80494f2:	e8 79 f3 ff ff       	call   8048870 <gethostbyname@plt>
 80494f7:	83 c4 10             	add    $0x10,%esp
 80494fa:	85 c0                	test   %eax,%eax
 80494fc:	75 73                	jne    8049571 <submitr+0x146>
 80494fe:	8b 44 24 18          	mov    0x18(%esp),%eax
 8049502:	c7 00 45 72 72 6f    	movl   $0x6f727245,(%eax)
 8049508:	c7 40 04 72 3a 20 44 	movl   $0x44203a72,0x4(%eax)
 804950f:	c7 40 08 4e 53 20 69 	movl   $0x6920534e,0x8(%eax)
 8049516:	c7 40 0c 73 20 75 6e 	movl   $0x6e752073,0xc(%eax)
 804951d:	c7 40 10 61 62 6c 65 	movl   $0x656c6261,0x10(%eax)
 8049524:	c7 40 14 20 74 6f 20 	movl   $0x206f7420,0x14(%eax)
 804952b:	c7 40 18 72 65 73 6f 	movl   $0x6f736572,0x18(%eax)
 8049532:	c7 40 1c 6c 76 65 20 	movl   $0x2065766c,0x1c(%eax)
 8049539:	c7 40 20 73 65 72 76 	movl   $0x76726573,0x20(%eax)
 8049540:	c7 40 24 65 72 20 61 	movl   $0x61207265,0x24(%eax)
 8049547:	c7 40 28 64 64 72 65 	movl   $0x65726464,0x28(%eax)
 804954e:	66 c7 40 2c 73 73    	movw   $0x7373,0x2c(%eax)
 8049554:	c6 40 2e 00          	movb   $0x0,0x2e(%eax)
 8049558:	83 ec 0c             	sub    $0xc,%esp
 804955b:	ff 74 24 14          	pushl  0x14(%esp)
 804955f:	e8 3c f3 ff ff       	call   80488a0 <close@plt>
 8049564:	83 c4 10             	add    $0x10,%esp
 8049567:	b8 ff ff ff ff       	mov    $0xffffffff,%eax
 804956c:	e9 bc 05 00 00       	jmp    8049b2d <submitr+0x702>
 8049571:	8d 74 24 30          	lea    0x30(%esp),%esi
 8049575:	c7 44 24 30 00 00 00 	movl   $0x0,0x30(%esp)
 804957c:	00 
 804957d:	c7 44 24 34 00 00 00 	movl   $0x0,0x34(%esp)
 8049584:	00 
 8049585:	c7 44 24 38 00 00 00 	movl   $0x0,0x38(%esp)
 804958c:	00 
 804958d:	c7 44 24 3c 00 00 00 	movl   $0x0,0x3c(%esp)
 8049594:	00 
 8049595:	66 c7 44 24 30 02 00 	movw   $0x2,0x30(%esp)
 804959c:	6a 0c                	push   $0xc
 804959e:	ff 70 0c             	pushl  0xc(%eax)
 80495a1:	8b 40 10             	mov    0x10(%eax),%eax
 80495a4:	ff 30                	pushl  (%eax)
 80495a6:	8d 44 24 40          	lea    0x40(%esp),%eax
 80495aa:	50                   	push   %eax
 80495ab:	e8 20 f2 ff ff       	call   80487d0 <__memmove_chk@plt>
 80495b0:	0f b7 84 24 84 a0 00 	movzwl 0xa084(%esp),%eax
 80495b7:	00 
 80495b8:	66 c1 c8 08          	ror    $0x8,%ax
 80495bc:	66 89 44 24 42       	mov    %ax,0x42(%esp)
 80495c1:	83 c4 0c             	add    $0xc,%esp
 80495c4:	6a 10                	push   $0x10
 80495c6:	56                   	push   %esi
 80495c7:	ff 74 24 14          	pushl  0x14(%esp)
 80495cb:	e8 c0 f2 ff ff       	call   8048890 <connect@plt>
 80495d0:	83 c4 10             	add    $0x10,%esp
 80495d3:	85 c0                	test   %eax,%eax
 80495d5:	79 65                	jns    804963c <submitr+0x211>
 80495d7:	8b 44 24 18          	mov    0x18(%esp),%eax
 80495db:	c7 00 45 72 72 6f    	movl   $0x6f727245,(%eax)
 80495e1:	c7 40 04 72 3a 20 55 	movl   $0x55203a72,0x4(%eax)
 80495e8:	c7 40 08 6e 61 62 6c 	movl   $0x6c62616e,0x8(%eax)
 80495ef:	c7 40 0c 65 20 74 6f 	movl   $0x6f742065,0xc(%eax)
 80495f6:	c7 40 10 20 63 6f 6e 	movl   $0x6e6f6320,0x10(%eax)
 80495fd:	c7 40 14 6e 65 63 74 	movl   $0x7463656e,0x14(%eax)
 8049604:	c7 40 18 20 74 6f 20 	movl   $0x206f7420,0x18(%eax)
 804960b:	c7 40 1c 74 68 65 20 	movl   $0x20656874,0x1c(%eax)
 8049612:	c7 40 20 73 65 72 76 	movl   $0x76726573,0x20(%eax)
 8049619:	66 c7 40 24 65 72    	movw   $0x7265,0x24(%eax)
 804961f:	c6 40 26 00          	movb   $0x0,0x26(%eax)
 8049623:	83 ec 0c             	sub    $0xc,%esp
 8049626:	ff 74 24 14          	pushl  0x14(%esp)
 804962a:	e8 71 f2 ff ff       	call   80488a0 <close@plt>
 804962f:	83 c4 10             	add    $0x10,%esp
 8049632:	b8 ff ff ff ff       	mov    $0xffffffff,%eax
 8049637:	e9 f1 04 00 00       	jmp    8049b2d <submitr+0x702>
 804963c:	be ff ff ff ff       	mov    $0xffffffff,%esi
 8049641:	b8 00 00 00 00       	mov    $0x0,%eax
 8049646:	89 f1                	mov    %esi,%ecx
 8049648:	89 df                	mov    %ebx,%edi
 804964a:	f2 ae                	repnz scas %es:(%edi),%al
 804964c:	f7 d1                	not    %ecx
 804964e:	89 cd                	mov    %ecx,%ebp
 8049650:	89 f1                	mov    %esi,%ecx
 8049652:	8b 7c 24 0c          	mov    0xc(%esp),%edi
 8049656:	f2 ae                	repnz scas %es:(%edi),%al
 8049658:	89 4c 24 1c          	mov    %ecx,0x1c(%esp)
 804965c:	89 f1                	mov    %esi,%ecx
 804965e:	8b 7c 24 10          	mov    0x10(%esp),%edi
 8049662:	f2 ae                	repnz scas %es:(%edi),%al
 8049664:	89 ca                	mov    %ecx,%edx
 8049666:	f7 d2                	not    %edx
 8049668:	89 f1                	mov    %esi,%ecx
 804966a:	8b 7c 24 14          	mov    0x14(%esp),%edi
 804966e:	f2 ae                	repnz scas %es:(%edi),%al
 8049670:	2b 54 24 1c          	sub    0x1c(%esp),%edx
 8049674:	29 ca                	sub    %ecx,%edx
 8049676:	8d 44 6d fd          	lea    -0x3(%ebp,%ebp,2),%eax
 804967a:	8d 44 02 7b          	lea    0x7b(%edx,%eax,1),%eax
 804967e:	3d 00 20 00 00       	cmp    $0x2000,%eax
 8049683:	76 7e                	jbe    8049703 <submitr+0x2d8>
 8049685:	8b 44 24 18          	mov    0x18(%esp),%eax
 8049689:	c7 00 45 72 72 6f    	movl   $0x6f727245,(%eax)
 804968f:	c7 40 04 72 3a 20 52 	movl   $0x52203a72,0x4(%eax)
 8049696:	c7 40 08 65 73 75 6c 	movl   $0x6c757365,0x8(%eax)
 804969d:	c7 40 0c 74 20 73 74 	movl   $0x74732074,0xc(%eax)
 80496a4:	c7 40 10 72 69 6e 67 	movl   $0x676e6972,0x10(%eax)
 80496ab:	c7 40 14 20 74 6f 6f 	movl   $0x6f6f7420,0x14(%eax)
 80496b2:	c7 40 18 20 6c 61 72 	movl   $0x72616c20,0x18(%eax)
 80496b9:	c7 40 1c 67 65 2e 20 	movl   $0x202e6567,0x1c(%eax)
 80496c0:	c7 40 20 49 6e 63 72 	movl   $0x72636e49,0x20(%eax)
 80496c7:	c7 40 24 65 61 73 65 	movl   $0x65736165,0x24(%eax)
 80496ce:	c7 40 28 20 53 55 42 	movl   $0x42555320,0x28(%eax)
 80496d5:	c7 40 2c 4d 49 54 52 	movl   $0x5254494d,0x2c(%eax)
 80496dc:	c7 40 30 5f 4d 41 58 	movl   $0x58414d5f,0x30(%eax)
 80496e3:	c7 40 34 42 55 46 00 	movl   $0x465542,0x34(%eax)
 80496ea:	83 ec 0c             	sub    $0xc,%esp
 80496ed:	ff 74 24 14          	pushl  0x14(%esp)
 80496f1:	e8 aa f1 ff ff       	call   80488a0 <close@plt>
 80496f6:	83 c4 10             	add    $0x10,%esp
 80496f9:	b8 ff ff ff ff       	mov    $0xffffffff,%eax
 80496fe:	e9 2a 04 00 00       	jmp    8049b2d <submitr+0x702>
 8049703:	8d 94 24 4c 40 00 00 	lea    0x404c(%esp),%edx
 804970a:	b9 00 08 00 00       	mov    $0x800,%ecx
 804970f:	b8 00 00 00 00       	mov    $0x0,%eax
 8049714:	89 d7                	mov    %edx,%edi
 8049716:	f3 ab                	rep stos %eax,%es:(%edi)
 8049718:	b9 ff ff ff ff       	mov    $0xffffffff,%ecx
 804971d:	89 df                	mov    %ebx,%edi
 804971f:	f2 ae                	repnz scas %es:(%edi),%al
 8049721:	f7 d1                	not    %ecx
 8049723:	89 ce                	mov    %ecx,%esi
 8049725:	83 ee 01             	sub    $0x1,%esi
 8049728:	0f 84 5c 04 00 00    	je     8049b8a <submitr+0x75f>
 804972e:	89 d5                	mov    %edx,%ebp
 8049730:	bf d9 ff 00 00       	mov    $0xffd9,%edi
 8049735:	0f b6 13             	movzbl (%ebx),%edx
 8049738:	8d 4a d6             	lea    -0x2a(%edx),%ecx
 804973b:	b8 01 00 00 00       	mov    $0x1,%eax
 8049740:	80 f9 0f             	cmp    $0xf,%cl
 8049743:	77 0a                	ja     804974f <submitr+0x324>
 8049745:	89 f8                	mov    %edi,%eax
 8049747:	d3 e8                	shr    %cl,%eax
 8049749:	83 f0 01             	xor    $0x1,%eax
 804974c:	83 e0 01             	and    $0x1,%eax
 804974f:	80 fa 5f             	cmp    $0x5f,%dl
 8049752:	0f 94 c1             	sete   %cl
 8049755:	38 c1                	cmp    %al,%cl
 8049757:	73 0c                	jae    8049765 <submitr+0x33a>
 8049759:	89 d0                	mov    %edx,%eax
 804975b:	83 e0 df             	and    $0xffffffdf,%eax
 804975e:	83 e8 41             	sub    $0x41,%eax
 8049761:	3c 19                	cmp    $0x19,%al
 8049763:	77 08                	ja     804976d <submitr+0x342>
 8049765:	88 55 00             	mov    %dl,0x0(%ebp)
 8049768:	8d 6d 01             	lea    0x1(%ebp),%ebp
 804976b:	eb 62                	jmp    80497cf <submitr+0x3a4>
 804976d:	80 fa 20             	cmp    $0x20,%dl
 8049770:	75 09                	jne    804977b <submitr+0x350>
 8049772:	c6 45 00 2b          	movb   $0x2b,0x0(%ebp)
 8049776:	8d 6d 01             	lea    0x1(%ebp),%ebp
 8049779:	eb 54                	jmp    80497cf <submitr+0x3a4>
 804977b:	8d 42 e0             	lea    -0x20(%edx),%eax
 804977e:	3c 5f                	cmp    $0x5f,%al
 8049780:	76 09                	jbe    804978b <submitr+0x360>
 8049782:	80 fa 09             	cmp    $0x9,%dl
 8049785:	0f 85 bb 03 00 00    	jne    8049b46 <submitr+0x71b>
 804978b:	83 ec 0c             	sub    $0xc,%esp
 804978e:	0f b6 d2             	movzbl %dl,%edx
 8049791:	52                   	push   %edx
 8049792:	68 dc a3 04 08       	push   $0x804a3dc
 8049797:	6a 08                	push   $0x8
 8049799:	6a 01                	push   $0x1
 804979b:	8d 84 24 68 80 00 00 	lea    0x8068(%esp),%eax
 80497a2:	50                   	push   %eax
 80497a3:	e8 18 f1 ff ff       	call   80488c0 <__sprintf_chk@plt>
 80497a8:	0f b6 84 24 6c 80 00 	movzbl 0x806c(%esp),%eax
 80497af:	00 
 80497b0:	88 45 00             	mov    %al,0x0(%ebp)
 80497b3:	0f b6 84 24 6d 80 00 	movzbl 0x806d(%esp),%eax
 80497ba:	00 
 80497bb:	88 45 01             	mov    %al,0x1(%ebp)
 80497be:	0f b6 84 24 6e 80 00 	movzbl 0x806e(%esp),%eax
 80497c5:	00 
 80497c6:	88 45 02             	mov    %al,0x2(%ebp)
 80497c9:	83 c4 20             	add    $0x20,%esp
 80497cc:	8d 6d 03             	lea    0x3(%ebp),%ebp
 80497cf:	83 c3 01             	add    $0x1,%ebx
 80497d2:	83 ee 01             	sub    $0x1,%esi
 80497d5:	0f 85 5a ff ff ff    	jne    8049735 <submitr+0x30a>
 80497db:	e9 aa 03 00 00       	jmp    8049b8a <submitr+0x75f>
 80497e0:	83 ec 04             	sub    $0x4,%esp
 80497e3:	53                   	push   %ebx
 80497e4:	56                   	push   %esi
 80497e5:	55                   	push   %ebp
 80497e6:	e8 15 f0 ff ff       	call   8048800 <write@plt>
 80497eb:	83 c4 10             	add    $0x10,%esp
 80497ee:	85 c0                	test   %eax,%eax
 80497f0:	7f 0f                	jg     8049801 <submitr+0x3d6>
 80497f2:	e8 39 f0 ff ff       	call   8048830 <__errno_location@plt>
 80497f7:	83 38 04             	cmpl   $0x4,(%eax)
 80497fa:	75 0f                	jne    804980b <submitr+0x3e0>
 80497fc:	b8 00 00 00 00       	mov    $0x0,%eax
 8049801:	01 c6                	add    %eax,%esi
 8049803:	29 c3                	sub    %eax,%ebx
 8049805:	75 d9                	jne    80497e0 <submitr+0x3b5>
 8049807:	85 ff                	test   %edi,%edi
 8049809:	79 69                	jns    8049874 <submitr+0x449>
 804980b:	8b 44 24 18          	mov    0x18(%esp),%eax
 804980f:	c7 00 45 72 72 6f    	movl   $0x6f727245,(%eax)
 8049815:	c7 40 04 72 3a 20 43 	movl   $0x43203a72,0x4(%eax)
 804981c:	c7 40 08 6c 69 65 6e 	movl   $0x6e65696c,0x8(%eax)
 8049823:	c7 40 0c 74 20 75 6e 	movl   $0x6e752074,0xc(%eax)
 804982a:	c7 40 10 61 62 6c 65 	movl   $0x656c6261,0x10(%eax)
 8049831:	c7 40 14 20 74 6f 20 	movl   $0x206f7420,0x14(%eax)
 8049838:	c7 40 18 77 72 69 74 	movl   $0x74697277,0x18(%eax)
 804983f:	c7 40 1c 65 20 74 6f 	movl   $0x6f742065,0x1c(%eax)
 8049846:	c7 40 20 20 74 68 65 	movl   $0x65687420,0x20(%eax)
 804984d:	c7 40 24 20 73 65 72 	movl   $0x72657320,0x24(%eax)
 8049854:	c7 40 28 76 65 72 00 	movl   $0x726576,0x28(%eax)
 804985b:	83 ec 0c             	sub    $0xc,%esp
 804985e:	ff 74 24 14          	pushl  0x14(%esp)
 8049862:	e8 39 f0 ff ff       	call   80488a0 <close@plt>
 8049867:	83 c4 10             	add    $0x10,%esp
 804986a:	b8 ff ff ff ff       	mov    $0xffffffff,%eax
 804986f:	e9 b9 02 00 00       	jmp    8049b2d <submitr+0x702>
 8049874:	8b 44 24 08          	mov    0x8(%esp),%eax
 8049878:	89 44 24 40          	mov    %eax,0x40(%esp)
 804987c:	c7 44 24 44 00 00 00 	movl   $0x0,0x44(%esp)
 8049883:	00 
 8049884:	8d 44 24 4c          	lea    0x4c(%esp),%eax
 8049888:	89 44 24 48          	mov    %eax,0x48(%esp)
 804988c:	b9 00 20 00 00       	mov    $0x2000,%ecx
 8049891:	8d 94 24 4c 20 00 00 	lea    0x204c(%esp),%edx
 8049898:	8d 44 24 40          	lea    0x40(%esp),%eax
 804989c:	e8 b6 fa ff ff       	call   8049357 <rio_readlineb>
 80498a1:	85 c0                	test   %eax,%eax
 80498a3:	7f 7d                	jg     8049922 <submitr+0x4f7>
 80498a5:	8b 44 24 18          	mov    0x18(%esp),%eax
 80498a9:	c7 00 45 72 72 6f    	movl   $0x6f727245,(%eax)
 80498af:	c7 40 04 72 3a 20 43 	movl   $0x43203a72,0x4(%eax)
 80498b6:	c7 40 08 6c 69 65 6e 	movl   $0x6e65696c,0x8(%eax)
 80498bd:	c7 40 0c 74 20 75 6e 	movl   $0x6e752074,0xc(%eax)
 80498c4:	c7 40 10 61 62 6c 65 	movl   $0x656c6261,0x10(%eax)
 80498cb:	c7 40 14 20 74 6f 20 	movl   $0x206f7420,0x14(%eax)
 80498d2:	c7 40 18 72 65 61 64 	movl   $0x64616572,0x18(%eax)
 80498d9:	c7 40 1c 20 66 69 72 	movl   $0x72696620,0x1c(%eax)
 80498e0:	c7 40 20 73 74 20 68 	movl   $0x68207473,0x20(%eax)
 80498e7:	c7 40 24 65 61 64 65 	movl   $0x65646165,0x24(%eax)
 80498ee:	c7 40 28 72 20 66 72 	movl   $0x72662072,0x28(%eax)
 80498f5:	c7 40 2c 6f 6d 20 73 	movl   $0x73206d6f,0x2c(%eax)
 80498fc:	c7 40 30 65 72 76 65 	movl   $0x65767265,0x30(%eax)
 8049903:	66 c7 40 34 72 00    	movw   $0x72,0x34(%eax)
 8049909:	83 ec 0c             	sub    $0xc,%esp
 804990c:	ff 74 24 14          	pushl  0x14(%esp)
 8049910:	e8 8b ef ff ff       	call   80488a0 <close@plt>
 8049915:	83 c4 10             	add    $0x10,%esp
 8049918:	b8 ff ff ff ff       	mov    $0xffffffff,%eax
 804991d:	e9 0b 02 00 00       	jmp    8049b2d <submitr+0x702>
 8049922:	83 ec 0c             	sub    $0xc,%esp
 8049925:	8d 84 24 58 80 00 00 	lea    0x8058(%esp),%eax
 804992c:	50                   	push   %eax
 804992d:	8d 44 24 3c          	lea    0x3c(%esp),%eax
 8049931:	50                   	push   %eax
 8049932:	8d 84 24 60 60 00 00 	lea    0x6060(%esp),%eax
 8049939:	50                   	push   %eax
 804993a:	68 e3 a3 04 08       	push   $0x804a3e3
 804993f:	8d 84 24 68 20 00 00 	lea    0x2068(%esp),%eax
 8049946:	50                   	push   %eax
 8049947:	e8 c4 ee ff ff       	call   8048810 <__isoc99_sscanf@plt>
 804994c:	8b 44 24 4c          	mov    0x4c(%esp),%eax
 8049950:	83 c4 20             	add    $0x20,%esp
 8049953:	3d c8 00 00 00       	cmp    $0xc8,%eax
 8049958:	0f 84 c4 00 00 00    	je     8049a22 <submitr+0x5f7>
 804995e:	83 ec 08             	sub    $0x8,%esp
 8049961:	8d 94 24 54 80 00 00 	lea    0x8054(%esp),%edx
 8049968:	52                   	push   %edx
 8049969:	50                   	push   %eax
 804996a:	68 f4 a2 04 08       	push   $0x804a2f4
 804996f:	6a ff                	push   $0xffffffff
 8049971:	6a 01                	push   $0x1
 8049973:	ff 74 24 34          	pushl  0x34(%esp)
 8049977:	e8 44 ef ff ff       	call   80488c0 <__sprintf_chk@plt>
 804997c:	83 c4 14             	add    $0x14,%esp
 804997f:	ff 74 24 14          	pushl  0x14(%esp)
 8049983:	e8 18 ef ff ff       	call   80488a0 <close@plt>
 8049988:	83 c4 10             	add    $0x10,%esp
 804998b:	b8 ff ff ff ff       	mov    $0xffffffff,%eax
 8049990:	e9 98 01 00 00       	jmp    8049b2d <submitr+0x702>
 8049995:	b9 00 20 00 00       	mov    $0x2000,%ecx
 804999a:	8d 94 24 4c 20 00 00 	lea    0x204c(%esp),%edx
 80499a1:	8d 44 24 40          	lea    0x40(%esp),%eax
 80499a5:	e8 ad f9 ff ff       	call   8049357 <rio_readlineb>
 80499aa:	85 c0                	test   %eax,%eax
 80499ac:	7f 74                	jg     8049a22 <submitr+0x5f7>
 80499ae:	8b 44 24 18          	mov    0x18(%esp),%eax
 80499b2:	c7 00 45 72 72 6f    	movl   $0x6f727245,(%eax)
 80499b8:	c7 40 04 72 3a 20 43 	movl   $0x43203a72,0x4(%eax)
 80499bf:	c7 40 08 6c 69 65 6e 	movl   $0x6e65696c,0x8(%eax)
 80499c6:	c7 40 0c 74 20 75 6e 	movl   $0x6e752074,0xc(%eax)
 80499cd:	c7 40 10 61 62 6c 65 	movl   $0x656c6261,0x10(%eax)
 80499d4:	c7 40 14 20 74 6f 20 	movl   $0x206f7420,0x14(%eax)
 80499db:	c7 40 18 72 65 61 64 	movl   $0x64616572,0x18(%eax)
 80499e2:	c7 40 1c 20 68 65 61 	movl   $0x61656820,0x1c(%eax)
 80499e9:	c7 40 20 64 65 72 73 	movl   $0x73726564,0x20(%eax)
 80499f0:	c7 40 24 20 66 72 6f 	movl   $0x6f726620,0x24(%eax)
 80499f7:	c7 40 28 6d 20 73 65 	movl   $0x6573206d,0x28(%eax)
 80499fe:	c7 40 2c 72 76 65 72 	movl   $0x72657672,0x2c(%eax)
 8049a05:	c6 40 30 00          	movb   $0x0,0x30(%eax)
 8049a09:	83 ec 0c             	sub    $0xc,%esp
 8049a0c:	ff 74 24 14          	pushl  0x14(%esp)
 8049a10:	e8 8b ee ff ff       	call   80488a0 <close@plt>
 8049a15:	83 c4 10             	add    $0x10,%esp
 8049a18:	b8 ff ff ff ff       	mov    $0xffffffff,%eax
 8049a1d:	e9 0b 01 00 00       	jmp    8049b2d <submitr+0x702>
 8049a22:	80 bc 24 4c 20 00 00 	cmpb   $0xd,0x204c(%esp)
 8049a29:	0d 
 8049a2a:	0f 85 65 ff ff ff    	jne    8049995 <submitr+0x56a>
 8049a30:	80 bc 24 4d 20 00 00 	cmpb   $0xa,0x204d(%esp)
 8049a37:	0a 
 8049a38:	0f 85 57 ff ff ff    	jne    8049995 <submitr+0x56a>
 8049a3e:	80 bc 24 4e 20 00 00 	cmpb   $0x0,0x204e(%esp)
 8049a45:	00 
 8049a46:	0f 85 49 ff ff ff    	jne    8049995 <submitr+0x56a>
 8049a4c:	b9 00 20 00 00       	mov    $0x2000,%ecx
 8049a51:	8d 94 24 4c 20 00 00 	lea    0x204c(%esp),%edx
 8049a58:	8d 44 24 40          	lea    0x40(%esp),%eax
 8049a5c:	e8 f6 f8 ff ff       	call   8049357 <rio_readlineb>
 8049a61:	85 c0                	test   %eax,%eax
 8049a63:	7f 7b                	jg     8049ae0 <submitr+0x6b5>
 8049a65:	8b 44 24 18          	mov    0x18(%esp),%eax
 8049a69:	c7 00 45 72 72 6f    	movl   $0x6f727245,(%eax)
 8049a6f:	c7 40 04 72 3a 20 43 	movl   $0x43203a72,0x4(%eax)
 8049a76:	c7 40 08 6c 69 65 6e 	movl   $0x6e65696c,0x8(%eax)
 8049a7d:	c7 40 0c 74 20 75 6e 	movl   $0x6e752074,0xc(%eax)
 8049a84:	c7 40 10 61 62 6c 65 	movl   $0x656c6261,0x10(%eax)
 8049a8b:	c7 40 14 20 74 6f 20 	movl   $0x206f7420,0x14(%eax)
 8049a92:	c7 40 18 72 65 61 64 	movl   $0x64616572,0x18(%eax)
 8049a99:	c7 40 1c 20 73 74 61 	movl   $0x61747320,0x1c(%eax)
 8049aa0:	c7 40 20 74 75 73 20 	movl   $0x20737574,0x20(%eax)
 8049aa7:	c7 40 24 6d 65 73 73 	movl   $0x7373656d,0x24(%eax)
 8049aae:	c7 40 28 61 67 65 20 	movl   $0x20656761,0x28(%eax)
 8049ab5:	c7 40 2c 66 72 6f 6d 	movl   $0x6d6f7266,0x2c(%eax)
 8049abc:	c7 40 30 20 73 65 72 	movl   $0x72657320,0x30(%eax)
 8049ac3:	c7 40 34 76 65 72 00 	movl   $0x726576,0x34(%eax)
 8049aca:	83 ec 0c             	sub    $0xc,%esp
 8049acd:	ff 74 24 14          	pushl  0x14(%esp)
 8049ad1:	e8 ca ed ff ff       	call   80488a0 <close@plt>
 8049ad6:	83 c4 10             	add    $0x10,%esp
 8049ad9:	b8 ff ff ff ff       	mov    $0xffffffff,%eax
 8049ade:	eb 4d                	jmp    8049b2d <submitr+0x702>
 8049ae0:	83 ec 08             	sub    $0x8,%esp
 8049ae3:	8d 84 24 54 20 00 00 	lea    0x2054(%esp),%eax
 8049aea:	50                   	push   %eax
 8049aeb:	8b 7c 24 24          	mov    0x24(%esp),%edi
 8049aef:	57                   	push   %edi
 8049af0:	e8 ab ec ff ff       	call   80487a0 <strcpy@plt>
 8049af5:	83 c4 04             	add    $0x4,%esp
 8049af8:	ff 74 24 14          	pushl  0x14(%esp)
 8049afc:	e8 9f ed ff ff       	call   80488a0 <close@plt>
 8049b01:	0f b6 17             	movzbl (%edi),%edx
 8049b04:	b8 4f 00 00 00       	mov    $0x4f,%eax
 8049b09:	83 c4 10             	add    $0x10,%esp
 8049b0c:	29 d0                	sub    %edx,%eax
 8049b0e:	75 13                	jne    8049b23 <submitr+0x6f8>
 8049b10:	0f b6 57 01          	movzbl 0x1(%edi),%edx
 8049b14:	b8 4b 00 00 00       	mov    $0x4b,%eax
 8049b19:	29 d0                	sub    %edx,%eax
 8049b1b:	75 06                	jne    8049b23 <submitr+0x6f8>
 8049b1d:	0f b6 47 02          	movzbl 0x2(%edi),%eax
 8049b21:	f7 d8                	neg    %eax
 8049b23:	85 c0                	test   %eax,%eax
 8049b25:	0f 95 c0             	setne  %al
 8049b28:	0f b6 c0             	movzbl %al,%eax
 8049b2b:	f7 d8                	neg    %eax
 8049b2d:	8b bc 24 4c a0 00 00 	mov    0xa04c(%esp),%edi
 8049b34:	65 33 3d 14 00 00 00 	xor    %gs:0x14,%edi
 8049b3b:	0f 84 a9 00 00 00    	je     8049bea <submitr+0x7bf>
 8049b41:	e9 9f 00 00 00       	jmp    8049be5 <submitr+0x7ba>
 8049b46:	a1 24 a3 04 08       	mov    0x804a324,%eax
 8049b4b:	8b 7c 24 18          	mov    0x18(%esp),%edi
 8049b4f:	89 07                	mov    %eax,(%edi)
 8049b51:	a1 63 a3 04 08       	mov    0x804a363,%eax
 8049b56:	89 47 3f             	mov    %eax,0x3f(%edi)
 8049b59:	89 f8                	mov    %edi,%eax
 8049b5b:	83 c7 04             	add    $0x4,%edi
 8049b5e:	83 e7 fc             	and    $0xfffffffc,%edi
 8049b61:	29 f8                	sub    %edi,%eax
 8049b63:	be 24 a3 04 08       	mov    $0x804a324,%esi
 8049b68:	29 c6                	sub    %eax,%esi
 8049b6a:	83 c0 43             	add    $0x43,%eax
 8049b6d:	c1 e8 02             	shr    $0x2,%eax
 8049b70:	89 c1                	mov    %eax,%ecx
 8049b72:	f3 a5                	rep movsl %ds:(%esi),%es:(%edi)
 8049b74:	83 ec 0c             	sub    $0xc,%esp
 8049b77:	ff 74 24 14          	pushl  0x14(%esp)
 8049b7b:	e8 20 ed ff ff       	call   80488a0 <close@plt>
 8049b80:	83 c4 10             	add    $0x10,%esp
 8049b83:	b8 ff ff ff ff       	mov    $0xffffffff,%eax
 8049b88:	eb a3                	jmp    8049b2d <submitr+0x702>
 8049b8a:	8d 84 24 4c 40 00 00 	lea    0x404c(%esp),%eax
 8049b91:	50                   	push   %eax
 8049b92:	ff 74 24 18          	pushl  0x18(%esp)
 8049b96:	ff 74 24 18          	pushl  0x18(%esp)
 8049b9a:	ff 74 24 18          	pushl  0x18(%esp)
 8049b9e:	68 68 a3 04 08       	push   $0x804a368
 8049ba3:	68 00 20 00 00       	push   $0x2000
 8049ba8:	6a 01                	push   $0x1
 8049baa:	8d bc 24 68 20 00 00 	lea    0x2068(%esp),%edi
 8049bb1:	57                   	push   %edi
 8049bb2:	e8 09 ed ff ff       	call   80488c0 <__sprintf_chk@plt>
 8049bb7:	b8 00 00 00 00       	mov    $0x0,%eax
 8049bbc:	b9 ff ff ff ff       	mov    $0xffffffff,%ecx
 8049bc1:	f2 ae                	repnz scas %es:(%edi),%al
 8049bc3:	f7 d1                	not    %ecx
 8049bc5:	8d 79 ff             	lea    -0x1(%ecx),%edi
 8049bc8:	83 c4 20             	add    $0x20,%esp
 8049bcb:	89 fb                	mov    %edi,%ebx
 8049bcd:	8d b4 24 4c 20 00 00 	lea    0x204c(%esp),%esi
 8049bd4:	8b 6c 24 08          	mov    0x8(%esp),%ebp
 8049bd8:	85 ff                	test   %edi,%edi
 8049bda:	0f 85 00 fc ff ff    	jne    80497e0 <submitr+0x3b5>
 8049be0:	e9 8f fc ff ff       	jmp    8049874 <submitr+0x449>
 8049be5:	e8 a6 eb ff ff       	call   8048790 <__stack_chk_fail@plt>
 8049bea:	81 c4 5c a0 00 00    	add    $0xa05c,%esp
 8049bf0:	5b                   	pop    %ebx
 8049bf1:	5e                   	pop    %esi
 8049bf2:	5f                   	pop    %edi
 8049bf3:	5d                   	pop    %ebp
 8049bf4:	c3                   	ret    

08049bf5 <init_timeout>:
 8049bf5:	53                   	push   %ebx
 8049bf6:	83 ec 08             	sub    $0x8,%esp
 8049bf9:	8b 5c 24 10          	mov    0x10(%esp),%ebx
 8049bfd:	85 db                	test   %ebx,%ebx
 8049bff:	74 24                	je     8049c25 <init_timeout+0x30>
 8049c01:	83 ec 08             	sub    $0x8,%esp
 8049c04:	68 34 93 04 08       	push   $0x8049334
 8049c09:	6a 0e                	push   $0xe
 8049c0b:	e8 50 eb ff ff       	call   8048760 <signal@plt>
 8049c10:	85 db                	test   %ebx,%ebx
 8049c12:	b8 00 00 00 00       	mov    $0x0,%eax
 8049c17:	0f 48 d8             	cmovs  %eax,%ebx
 8049c1a:	89 1c 24             	mov    %ebx,(%esp)
 8049c1d:	e8 5e eb ff ff       	call   8048780 <alarm@plt>
 8049c22:	83 c4 10             	add    $0x10,%esp
 8049c25:	83 c4 08             	add    $0x8,%esp
 8049c28:	5b                   	pop    %ebx
 8049c29:	c3                   	ret    

08049c2a <init_driver>:
 8049c2a:	57                   	push   %edi
 8049c2b:	56                   	push   %esi
 8049c2c:	53                   	push   %ebx
 8049c2d:	83 ec 28             	sub    $0x28,%esp
 8049c30:	8b 74 24 38          	mov    0x38(%esp),%esi
 8049c34:	65 a1 14 00 00 00    	mov    %gs:0x14,%eax
 8049c3a:	89 44 24 24          	mov    %eax,0x24(%esp)
 8049c3e:	31 c0                	xor    %eax,%eax
 8049c40:	6a 01                	push   $0x1
 8049c42:	6a 0d                	push   $0xd
 8049c44:	e8 17 eb ff ff       	call   8048760 <signal@plt>
 8049c49:	83 c4 08             	add    $0x8,%esp
 8049c4c:	6a 01                	push   $0x1
 8049c4e:	6a 1d                	push   $0x1d
 8049c50:	e8 0b eb ff ff       	call   8048760 <signal@plt>
 8049c55:	83 c4 08             	add    $0x8,%esp
 8049c58:	6a 01                	push   $0x1
 8049c5a:	6a 1d                	push   $0x1d
 8049c5c:	e8 ff ea ff ff       	call   8048760 <signal@plt>
 8049c61:	83 c4 0c             	add    $0xc,%esp
 8049c64:	6a 00                	push   $0x0
 8049c66:	6a 01                	push   $0x1
 8049c68:	6a 02                	push   $0x2
 8049c6a:	e8 e1 eb ff ff       	call   8048850 <socket@plt>
 8049c6f:	83 c4 10             	add    $0x10,%esp
 8049c72:	85 c0                	test   %eax,%eax
 8049c74:	79 4e                	jns    8049cc4 <init_driver+0x9a>
 8049c76:	c7 06 45 72 72 6f    	movl   $0x6f727245,(%esi)
 8049c7c:	c7 46 04 72 3a 20 43 	movl   $0x43203a72,0x4(%esi)
 8049c83:	c7 46 08 6c 69 65 6e 	movl   $0x6e65696c,0x8(%esi)
 8049c8a:	c7 46 0c 74 20 75 6e 	movl   $0x6e752074,0xc(%esi)
 8049c91:	c7 46 10 61 62 6c 65 	movl   $0x656c6261,0x10(%esi)
 8049c98:	c7 46 14 20 74 6f 20 	movl   $0x206f7420,0x14(%esi)
 8049c9f:	c7 46 18 63 72 65 61 	movl   $0x61657263,0x18(%esi)
 8049ca6:	c7 46 1c 74 65 20 73 	movl   $0x73206574,0x1c(%esi)
 8049cad:	c7 46 20 6f 63 6b 65 	movl   $0x656b636f,0x20(%esi)
 8049cb4:	66 c7 46 24 74 00    	movw   $0x74,0x24(%esi)
 8049cba:	b8 ff ff ff ff       	mov    $0xffffffff,%eax
 8049cbf:	e9 1f 01 00 00       	jmp    8049de3 <init_driver+0x1b9>
 8049cc4:	89 c3                	mov    %eax,%ebx
 8049cc6:	83 ec 0c             	sub    $0xc,%esp
 8049cc9:	68 f4 a3 04 08       	push   $0x804a3f4
 8049cce:	e8 9d eb ff ff       	call   8048870 <gethostbyname@plt>
 8049cd3:	83 c4 10             	add    $0x10,%esp
 8049cd6:	85 c0                	test   %eax,%eax
 8049cd8:	75 6c                	jne    8049d46 <init_driver+0x11c>
 8049cda:	c7 06 45 72 72 6f    	movl   $0x6f727245,(%esi)
 8049ce0:	c7 46 04 72 3a 20 44 	movl   $0x44203a72,0x4(%esi)
 8049ce7:	c7 46 08 4e 53 20 69 	movl   $0x6920534e,0x8(%esi)
 8049cee:	c7 46 0c 73 20 75 6e 	movl   $0x6e752073,0xc(%esi)
 8049cf5:	c7 46 10 61 62 6c 65 	movl   $0x656c6261,0x10(%esi)
 8049cfc:	c7 46 14 20 74 6f 20 	movl   $0x206f7420,0x14(%esi)
 8049d03:	c7 46 18 72 65 73 6f 	movl   $0x6f736572,0x18(%esi)
 8049d0a:	c7 46 1c 6c 76 65 20 	movl   $0x2065766c,0x1c(%esi)
 8049d11:	c7 46 20 73 65 72 76 	movl   $0x76726573,0x20(%esi)
 8049d18:	c7 46 24 65 72 20 61 	movl   $0x61207265,0x24(%esi)
 8049d1f:	c7 46 28 64 64 72 65 	movl   $0x65726464,0x28(%esi)
 8049d26:	66 c7 46 2c 73 73    	movw   $0x7373,0x2c(%esi)
 8049d2c:	c6 46 2e 00          	movb   $0x0,0x2e(%esi)
 8049d30:	83 ec 0c             	sub    $0xc,%esp
 8049d33:	53                   	push   %ebx
 8049d34:	e8 67 eb ff ff       	call   80488a0 <close@plt>
 8049d39:	83 c4 10             	add    $0x10,%esp
 8049d3c:	b8 ff ff ff ff       	mov    $0xffffffff,%eax
 8049d41:	e9 9d 00 00 00       	jmp    8049de3 <init_driver+0x1b9>
 8049d46:	8d 7c 24 0c          	lea    0xc(%esp),%edi
 8049d4a:	c7 44 24 0c 00 00 00 	movl   $0x0,0xc(%esp)
 8049d51:	00 
 8049d52:	c7 44 24 10 00 00 00 	movl   $0x0,0x10(%esp)
 8049d59:	00 
 8049d5a:	c7 44 24 14 00 00 00 	movl   $0x0,0x14(%esp)
 8049d61:	00 
 8049d62:	c7 44 24 18 00 00 00 	movl   $0x0,0x18(%esp)
 8049d69:	00 
 8049d6a:	66 c7 44 24 0c 02 00 	movw   $0x2,0xc(%esp)
 8049d71:	6a 0c                	push   $0xc
 8049d73:	ff 70 0c             	pushl  0xc(%eax)
 8049d76:	8b 40 10             	mov    0x10(%eax),%eax
 8049d79:	ff 30                	pushl  (%eax)
 8049d7b:	8d 44 24 1c          	lea    0x1c(%esp),%eax
 8049d7f:	50                   	push   %eax
 8049d80:	e8 4b ea ff ff       	call   80487d0 <__memmove_chk@plt>
 8049d85:	66 c7 44 24 1e 3b 6e 	movw   $0x6e3b,0x1e(%esp)
 8049d8c:	83 c4 0c             	add    $0xc,%esp
 8049d8f:	6a 10                	push   $0x10
 8049d91:	57                   	push   %edi
 8049d92:	53                   	push   %ebx
 8049d93:	e8 f8 ea ff ff       	call   8048890 <connect@plt>
 8049d98:	83 c4 10             	add    $0x10,%esp
 8049d9b:	85 c0                	test   %eax,%eax
 8049d9d:	79 2a                	jns    8049dc9 <init_driver+0x19f>
 8049d9f:	83 ec 0c             	sub    $0xc,%esp
 8049da2:	68 f4 a3 04 08       	push   $0x804a3f4
 8049da7:	68 b4 a3 04 08       	push   $0x804a3b4
 8049dac:	6a ff                	push   $0xffffffff
 8049dae:	6a 01                	push   $0x1
 8049db0:	56                   	push   %esi
 8049db1:	e8 0a eb ff ff       	call   80488c0 <__sprintf_chk@plt>
 8049db6:	83 c4 14             	add    $0x14,%esp
 8049db9:	53                   	push   %ebx
 8049dba:	e8 e1 ea ff ff       	call   80488a0 <close@plt>
 8049dbf:	83 c4 10             	add    $0x10,%esp
 8049dc2:	b8 ff ff ff ff       	mov    $0xffffffff,%eax
 8049dc7:	eb 1a                	jmp    8049de3 <init_driver+0x1b9>
 8049dc9:	83 ec 0c             	sub    $0xc,%esp
 8049dcc:	53                   	push   %ebx
 8049dcd:	e8 ce ea ff ff       	call   80488a0 <close@plt>
 8049dd2:	66 c7 06 4f 4b       	movw   $0x4b4f,(%esi)
 8049dd7:	c6 46 02 00          	movb   $0x0,0x2(%esi)
 8049ddb:	83 c4 10             	add    $0x10,%esp
 8049dde:	b8 00 00 00 00       	mov    $0x0,%eax
 8049de3:	8b 54 24 1c          	mov    0x1c(%esp),%edx
 8049de7:	65 33 15 14 00 00 00 	xor    %gs:0x14,%edx
 8049dee:	74 05                	je     8049df5 <init_driver+0x1cb>
 8049df0:	e8 9b e9 ff ff       	call   8048790 <__stack_chk_fail@plt>
 8049df5:	83 c4 20             	add    $0x20,%esp
 8049df8:	5b                   	pop    %ebx
 8049df9:	5e                   	pop    %esi
 8049dfa:	5f                   	pop    %edi
 8049dfb:	c3                   	ret    

08049dfc <driver_post>:
 8049dfc:	53                   	push   %ebx
 8049dfd:	83 ec 08             	sub    $0x8,%esp
 8049e00:	8b 44 24 10          	mov    0x10(%esp),%eax
 8049e04:	8b 5c 24 1c          	mov    0x1c(%esp),%ebx
 8049e08:	83 7c 24 18 00       	cmpl   $0x0,0x18(%esp)
 8049e0d:	74 26                	je     8049e35 <driver_post+0x39>
 8049e0f:	83 ec 04             	sub    $0x4,%esp
 8049e12:	ff 74 24 18          	pushl  0x18(%esp)
 8049e16:	68 02 a4 04 08       	push   $0x804a402
 8049e1b:	6a 01                	push   $0x1
 8049e1d:	e8 1e ea ff ff       	call   8048840 <__printf_chk@plt>
 8049e22:	66 c7 03 4f 4b       	movw   $0x4b4f,(%ebx)
 8049e27:	c6 43 02 00          	movb   $0x0,0x2(%ebx)
 8049e2b:	83 c4 10             	add    $0x10,%esp
 8049e2e:	b8 00 00 00 00       	mov    $0x0,%eax
 8049e33:	eb 3e                	jmp    8049e73 <driver_post+0x77>
 8049e35:	85 c0                	test   %eax,%eax
 8049e37:	74 2c                	je     8049e65 <driver_post+0x69>
 8049e39:	80 38 00             	cmpb   $0x0,(%eax)
 8049e3c:	74 27                	je     8049e65 <driver_post+0x69>
 8049e3e:	83 ec 04             	sub    $0x4,%esp
 8049e41:	53                   	push   %ebx
 8049e42:	ff 74 24 1c          	pushl  0x1c(%esp)
 8049e46:	68 19 a4 04 08       	push   $0x804a419
 8049e4b:	50                   	push   %eax
 8049e4c:	68 21 a4 04 08       	push   $0x804a421
 8049e51:	68 6e 3b 00 00       	push   $0x3b6e
 8049e56:	68 f4 a3 04 08       	push   $0x804a3f4
 8049e5b:	e8 cb f5 ff ff       	call   804942b <submitr>
 8049e60:	83 c4 20             	add    $0x20,%esp
 8049e63:	eb 0e                	jmp    8049e73 <driver_post+0x77>
 8049e65:	66 c7 03 4f 4b       	movw   $0x4b4f,(%ebx)
 8049e6a:	c6 43 02 00          	movb   $0x0,0x2(%ebx)
 8049e6e:	b8 00 00 00 00       	mov    $0x0,%eax
 8049e73:	83 c4 08             	add    $0x8,%esp
 8049e76:	5b                   	pop    %ebx
 8049e77:	c3                   	ret    
 8049e78:	66 90                	xchg   %ax,%ax
 8049e7a:	66 90                	xchg   %ax,%ax
 8049e7c:	66 90                	xchg   %ax,%ax
 8049e7e:	66 90                	xchg   %ax,%ax

08049e80 <__libc_csu_init>:
 8049e80:	55                   	push   %ebp
 8049e81:	57                   	push   %edi
 8049e82:	56                   	push   %esi
 8049e83:	53                   	push   %ebx
 8049e84:	e8 87 ea ff ff       	call   8048910 <__x86.get_pc_thunk.bx>
 8049e89:	81 c3 77 21 00 00    	add    $0x2177,%ebx
 8049e8f:	83 ec 0c             	sub    $0xc,%esp
 8049e92:	8b 6c 24 20          	mov    0x20(%esp),%ebp
 8049e96:	8d b3 0c ff ff ff    	lea    -0xf4(%ebx),%esi
 8049e9c:	e8 53 e8 ff ff       	call   80486f4 <_init>
 8049ea1:	8d 83 08 ff ff ff    	lea    -0xf8(%ebx),%eax
 8049ea7:	29 c6                	sub    %eax,%esi
 8049ea9:	c1 fe 02             	sar    $0x2,%esi
 8049eac:	85 f6                	test   %esi,%esi
 8049eae:	74 25                	je     8049ed5 <__libc_csu_init+0x55>
 8049eb0:	31 ff                	xor    %edi,%edi
 8049eb2:	8d b6 00 00 00 00    	lea    0x0(%esi),%esi
 8049eb8:	83 ec 04             	sub    $0x4,%esp
 8049ebb:	ff 74 24 2c          	pushl  0x2c(%esp)
 8049ebf:	ff 74 24 2c          	pushl  0x2c(%esp)
 8049ec3:	55                   	push   %ebp
 8049ec4:	ff 94 bb 08 ff ff ff 	call   *-0xf8(%ebx,%edi,4)
 8049ecb:	83 c7 01             	add    $0x1,%edi
 8049ece:	83 c4 10             	add    $0x10,%esp
 8049ed1:	39 f7                	cmp    %esi,%edi
 8049ed3:	75 e3                	jne    8049eb8 <__libc_csu_init+0x38>
 8049ed5:	83 c4 0c             	add    $0xc,%esp
 8049ed8:	5b                   	pop    %ebx
 8049ed9:	5e                   	pop    %esi
 8049eda:	5f                   	pop    %edi
 8049edb:	5d                   	pop    %ebp
 8049edc:	c3                   	ret    
 8049edd:	8d 76 00             	lea    0x0(%esi),%esi

08049ee0 <__libc_csu_fini>:
 8049ee0:	f3 c3                	repz ret 

Disassembly of section .fini:

08049ee4 <_fini>:
 8049ee4:	53                   	push   %ebx
 8049ee5:	83 ec 08             	sub    $0x8,%esp
 8049ee8:	e8 23 ea ff ff       	call   8048910 <__x86.get_pc_thunk.bx>
 8049eed:	81 c3 13 21 00 00    	add    $0x2113,%ebx
 8049ef3:	83 c4 08             	add    $0x8,%esp
 8049ef6:	5b                   	pop    %ebx
 8049ef7:	c3                   	ret    
